MPASM 03.60 Released                   INTERRUPCION_SP V8.ASM   8-14-2007  10:34:48         PAGE  1


LOC  OBJECT CODE     LINE SOURCE TEXT
  VALUE

                      00001 ;***************************************************************
                      00002                         list    p=16F88
                      00003                         #include        <p16F88.inc>
                      00001         LIST
                      00002 ; P16F88.INC  Standard Header File, Version 1.00    Microchip Technology, Inc.
                      00401         LIST
                      00004 ;***************************************************************
                      00005 BANCO0          MACRO                           ; todos los 16F88 son capaces de direccionar bloque un b
                            loque de 8K continuos de palabra de memoria de programa
                      00006                         BCF     STATUS,RP0      ; las instrucciones CALL and GOTO proveen solo 11 bits d
                            e direccion para permitir saltar dentro de alguna pagina de 
                      00007                         BCF     STATUS,RP1      ; de memoria de programa de 2K
                      00008                         ENDM                            ; PCL tiene 11 bits para direccionar la memoria 
                            de programa, 2^11 = 2048 
                      00009 BANCO1          MACRO                           ; Cuando se hace una instruccion CALL o GOTO, los dos bi
                            ts mas signifitivos de la direccion son entregados 
                      00010                         BSF     STATUS,RP0      ; por PCLATH<4:3>
                      00011                         BCF     STATUS,RP1      ; Cuando se hace una instruccion CALL o GOTO, el usuario
                             debe asegurar que los bits seleccionados de la pagina
                      00012                         ENDM                            ; son programados, asi la pagina de la memoria d
                            e programa deseada es direccionada.
                      00013 BANCO2          MACRO                           ; si un retorno de una instruccion CALL (o interrupcion 
                            ) es ejecutada. Los 13 bits del PC son POPPED OFF
                      00014                         BCF     STATUS,RP0      ; de la pila. Por lo tanto, la manipulacion de los bits 
                            PCLATH<4:3> no son requeridas por la instruccion RETURN
                      00015                         BSF     STATUS,RP1      ; (el cual POPS la direccion desde la pila)
                      00016                         ENDM                                    
                      00017 BANCO3          MACRO                           ; OJO: el contenido del registro PCLATH se mantiene sin 
                            cambios despues de una instruccion RETURN, RETFIE
                      00018                         BSF     STATUS,RP0      ; ejecutada. El usuario debe reescribir el contenido de 
                            el registro PCLATH para alguna subsecuente llamada
                      00019                         BSF     STATUS,RP1      ; de subrutina o instruccion GOTO.
                      00020                         ENDM
                      00021 ;****************************************************************
                      00022                                 ; PC de 13 bits                                                 ; PC    
                            LATH     | 4 | 3 |              PCL     |7|6|5|4|3|2|1|0|       11 bits del PROGRAM COUNTER (PC)
                      00023                                 ; MEMORIA                       PAGINA 0                        ----> 00
                            05 a la 07FF            05     a la 2047
                      00024         ; 4K x 14               ; DE PROGRAMA           PAGINA 1                        ----> 0800 a la 
                            0FFF            2048 a la 4095                          2048 a la ( 2^11 = 2048 ) x 2 = 4096 pal
                      00025                                 ; MEMORIA
                      00026         ;4K x 14                ; DE DATOS                                      CATALOGADA EN 4 BANCOS  
                            -----> 00 a la 1FF                                      
                      00027         ;14 es la amplitud del bus de la memoria de programa
                      00028 ;****************************************************************
  00000024            00029 UNI                             equ     24h     ; RECORDATORIO DE EN DONDE SE ENCUENGRAN ALGUNOS REGISTR
                            OS 
  00000025            00030 DECE                    equ     25h     ;       ADRESH  1Eh             banco 0
  00000026            00031 SP                              equ     26h     ;       ADRESL  9Eh             banco 1
  00000027            00032 uni_comodin             equ     27h     ;       ANSEL           9Bh             banco 1
  00000028            00033 dece_comodin    equ     28h     ;       ADCON0  1Fh             banco 0
  00000029            00034 STATUS_TEMP     equ 29h ;       ADCON1  9Fh             banco 1
  0000002A            00035 PCLATH_TEMP     equ 2Ah ;****************************************************************
MPASM 03.60 Released                   INTERRUPCION_SP V8.ASM   8-14-2007  10:34:48         PAGE  2


LOC  OBJECT CODE     LINE SOURCE TEXT
  VALUE

  0000002B            00036 W_TEMP          equ     2Bh
                      00037 ;**************************************************
  0000002C            00038 BINARIO                 equ     2Ch
  0000002D            00039 CONTADOR1       equ 2Dh
  0000002E            00040 CONTADOR2       equ 2Eh
  0000002F            00041 CONTADOR3       equ 2Fh
                      00042 ;********************** 
  00000030            00043 BCDH                    equ 30h
  00000031            00044 BCDL                    equ 31h
  00000032            00045 BCD_TEMP                equ 32h
                      00046 
  00000034            00047 BIN                             equ 34h
  00000035            00048 BIN_comodin             equ 35h
  00000036            00049 T_ADQ                   equ 36h
                      00050 ;*************************************************
  00000037            00051 SEIS_CERO               equ     37h
  00000038            00052 NUEVE_NUEVE     equ  38h
                      00053 ;***************************************************************
  00000039            00054 DECE_com                equ     39h
                      00055 ;CUENTASP1      equ 3Ah
                      00056 ;CUENTASP2      equ 3Bh
                      00057 ;CUENTASP3      equ 3Ch
                      00058 ;CUENTASP4      equ 3Dh
  0000003E            00059 REG_REBOTE1     equ 3Eh
  0000003F            00060 REG_REBOTE2     equ     3Fh
  00000040            00061 RETARDO_PULSO           equ     40h
  00000042            00062 RETARDO_PULSO_com       equ 42h
  00000043            00063 VECES_MISMO_RET         equ 43h
  00000044            00064 CUENTA                          equ 44h
  00000033            00065 CUENTA100                               equ 33h
  00000041            00066 CONTADOR_D_PULS equ 41h
  00000042            00067 COM                                     equ 42h   
  00000043            00068 CUENTA100_com           equ 43h
                      00069 
  00000045            00070 CUENTASP1       equ 45h
  00000046            00071 CUENTASP2       equ 46h
  00000047            00072 CUENTASP3       equ 47h
  00000048            00073 CUENTASP4       equ 48h
                      00074 
                      00075 ;#######################################################################################################
                            ############################
0000                  00076                         ORG             0x00
0000   2805           00077                         GOTO            INICIO
0004                  00078                         ORG             0x04
0004   2900           00079                         GOTO            SP_INTERRUPT
                      00080 ;#######################################################################################################
                            ############################
0005                  00081                         ORG             0x05
0005   2218           00082 INICIO          CALL            limpia_registros
0006   2231           00083                         CALL            configura_oscilador
                      00084                         ;CALL           configura_TMR0
                      00085                         ;CALL           configura_comparadores  ; un comparador independiente
0007   2236           00086                         CALL            configura_puertos
MPASM 03.60 Released                   INTERRUPCION_SP V8.ASM   8-14-2007  10:34:48         PAGE  3


LOC  OBJECT CODE     LINE SOURCE TEXT
  VALUE

                      00087                         ;CALL           configura_convertidor
0008   223D           00088                         CALL            configura_interrupciones
                      00089                         ;----------  PROGRAMA PRINCIPAL -  ---------------------------------------------
                            ----------------------------
                      00090                         
                      00091                                         ;---------------------------------------------------------------
                            ------------------------------------------------------------------------------------------------
                      00092 INICIO_PRINC            BANCO0
0009   1283               M                         BCF     STATUS,RP0      ; las instrucciones CALL and GOTO proveen solo 11 bits d
                            e direccion para permitir saltar dentro de alguna pagina de 
000A   1303               M                         BCF     STATUS,RP1      ; de memoria de programa de 2K
000B   01C1           00093                                         CLRF            CONTADOR_D_PULS
000C   3064           00094                                         MOVLW           H'64'                                           
                            ; 100 decimal = 64h
000D   00B3           00095                                         MOVWF           CUENTA100
                      00096                                         
000E   3064           00097                                         MOVLW           H'64'                                   ; 100 ve
                            ces
000F   00C3           00098                                         MOVWF           VECES_MISMO_RET         
                      00099                                         
0010   1B85           00100 REVISA_CRUCEx01 BTFSC           PORTA,7                         ; monitorea el pulso de cruce por cero
0011   2810           00101                                         GOTO            REVISA_CRUCEx01         ; monitorea el pulso de 
                            cruce por cero
0012   1205           00102                                         BCF             PORTA,4
                      00103                                         
0013   0833           00104                                         MOVF            CUENTA100,0                     ; la primera vez
                             mueve un 88 al registro W
0014   00C0           00105                                         MOVWF           RETARDO_PULSO           ; mueve el 88 al registr
                            o RETARDO de PULSO
0015   244C           00106 HAZ1                            CALL            t83_micros
0016   0BC0           00107                                         DECFSZ  RETARDO_PULSO,1         ; decrementa el registro y almac
                            enalo en el mismo       
0017   2815           00108                                         GOTO            HAZ1
Message[305]: Using default destination of 1 (file).
0018   0AC1           00109                                         INCF            CONTADOR_D_PULS                                 
                                                                                                    ; 8.333 [ms]/100 = 83.33
                      00110 
0019   1605           00111                                         BSF             PORTA,4                         ; TERCERO: APARE
                            CE EL PULSO 
001A   244C           00112                                         CALL            t83_micros                              ; CUARTO
                            : DURACION DEL PULSO DE  1 ms
001B   1205           00113                                         BCF             PORTA,4                         ; QUINTO: DESAPA
                            RECE EL PULSO, Y 
                      00114 
001C   0BC3           00115                                         DECFSZ  VECES_MISMO_RET,1
001D   2824           00116                                         GOTO            SALIR_AOTRO     
                      00117 
001E   3064           00118                                         MOVLW           H'64'
001F   00C3           00119                                         MOVWF           VECES_MISMO_RET         
0020   2821           00120                                         GOTO            DEC_CUENTA
                      00121                 
0021   0BB3           00122 DEC_CUENTA              DECFSZ  CUENTA100,1
0022   2824           00123                                         GOTO            SALIR_AOTRO
MPASM 03.60 Released                   INTERRUPCION_SP V8.ASM   8-14-2007  10:34:48         PAGE  4


LOC  OBJECT CODE     LINE SOURCE TEXT
  VALUE

0023   2825           00124                                         GOTO            FINALIZA
0024   2810           00125 SALIR_AOTRO             GOTO            REVISA_CRUCEx01         ; SEXTO: ESPERA UN NUEVO CRUCE POR CERO
                      00126                                         ;---------------------------------------------------------------
                            -----------------------------------------------------------------------------
0025   2825           00127 FINALIZA                        GOTO            FINALIZA
                      00128 ;#######################################################################################################
                            #############
                      00129 ;{{{{{{{{{{{{{{{{{{{{{{{{{{{{{{{{{{{{{{{{{{{{{{{{{{{{{{{{{{{{{{{{{{{{{{{{{{{{{{{{{{  SUBRUTINA DE INTERR
                            UPCION }}}}}}}}}}}}}}}}}}}}}}}}}}}}}}}}}}}}}}}}}}}}}}}}}}}}}}}}}}}}}}}}}}}}}}}}}}}}}}}}}}}}}}}}}
0100                  00130                                 ORG             0x100
0100   00AB           00131 SP_INTERRUPT    MOVWF   W_TEMP          ;Copy W to TEMP register                                        
                                                    ;codigo propuesto por hoja de especificaciones
0101   0E03           00132                                 SWAPF           STATUS,0                ;Swap status to be saved into W 
                                                                            ;codigo propuesto por hoja de especificaciones
0102   0183           00133                                 CLRF            STATUS          ;bank 0, regardless of current bank, Cle
                            ars IRP,RP1,RP0 ;codigo propuesto por hoja de especificaciones
0103   00A9           00134                                 MOVWF   STATUS_TEMP     ;Save status to bank zero STATUS_TEMP register  
                                            ;codigo propuesto por hoja de especificaciones
                      00135                                 ;MOVF           PCL,0                   ;Only required if using page 1  
                                                                            ;codigo propuesto por hoja de especificaciones
                      00136                                 ;MOVWF  PCLATH_TEMP     ;Save PCLATH into W                             
                                                                    ;codigo propuesto por hoja de especificaciones
                      00137                                 ;CLRF           PCL                     ;Page zero, regardless of curren
                            t page                                  ;codigo propuesto por hoja de especificaciones
                      00138                                 ; ================================================
0104   3009           00139 INICIA_SP               MOVLW           H'09'
0105   00A4           00140                                 MOVWF           UNI
0106   00A5           00141                                 MOVWF           DECE
                      00142                                 ;-----------------------------------------------------------------------
                            ------------------------------------------------------------------------------------------------
0107   224D           00143                                 CALL            desplegar_u_bcd
0108   2257           00144                                 CALL            desplegar_d_bcd
                      00145                                 ;-----------------------------------------------------------------------
                            ------------------------------------------------------------------------------------------------
0109   30FF           00146 OTRA_VEZ                MOVLW           H'FF'                                           ;(1)
010A   00C5           00147                                 MOVWF           CUENTASP1                               ;(1)
010B   30FF           00148                                 MOVLW           H'FF'                                           ;(1)
010C   00C6           00149                                 MOVWF           CUENTASP2                               ;(1)
010D   3008           00150                                 MOVLW           H'08'                                           ;(1)    
                            ;carga un  decimal
010E   00C7           00151                                 MOVWF           CUENTASP3                               ;(1)
                      00152                                 ;-----------------------------------------------------------------------
                            ------------------------------------------------------------------------------------------------
010F   1D05           00153 REVISA_U                BTFSS           PORTA,2                         ;(1)
0110   2915           00154                                 GOTO            REVISA_D                                ;(2)
                      00155 
0111   2200           00156                                 CALL            configura_unidades                      
0112   1905           00157 U_SIGUE_1               BTFSC           PORTA,2                         ;
0113   2912           00158                                 GOTO            U_SIGUE_1
0114   2909           00159                                 GOTO            OTRA_VEZ
                      00160                                 
0115   1E85           00161 REVISA_D                BTFSS           PORTA,5                         ;(1)
0116   291B           00162                                 GOTO            QUITA_TIEMPO                    ;(2)                    
MPASM 03.60 Released                   INTERRUPCION_SP V8.ASM   8-14-2007  10:34:48         PAGE  5


LOC  OBJECT CODE     LINE SOURCE TEXT
  VALUE

                            ; 9 ciclos de instruccion, 
                      00163 
0117   220C           00164                                 CALL            configura_decenas
0118   1A85           00165 D_SIGUE_1               BTFSC           PORTA,5                         ;
0119   2918           00166                                 GOTO            D_SIGUE_1
011A   2909           00167                                 GOTO            OTRA_VEZ
                      00168                                 
011B   0BC5           00169 QUITA_TIEMPO    DECFSZ  CUENTASP1,1                     ;(1)
011C   290F           00170                                 GOTO            REVISA_U                                ;(2)
                      00171                                 ;-----------------------------------------------------------------------
                            ------------------------------------------------------------------------------------------------
011D   0BC6           00172                                 DECFSZ  CUENTASP2,1                     ;(1)
011E   290F           00173                                 GOTO            REVISA_U                                ;(2)
011F   0BC7           00174                                 DECFSZ  CUENTASP3,1                     ;(1)
0120   290F           00175                                 GOTO            REVISA_U                                ;(2)
                      00176                                 ;-----------------------------------------------------------------------
                            ------------------------------------------------------------------------------------------------
                      00177 ACCION_out              BANCO0
0121   1283               M                         BCF     STATUS,RP0      ; las instrucciones CALL and GOTO proveen solo 11 bits d
                            e direccion para permitir saltar dentro de alguna pagina de 
0122   1303               M                         BCF     STATUS,RP1      ; de memoria de programa de 2K
0123   3006           00178                                 MOVLW           H'06'                   ; PARA DESPLEGAR 6 VECES EL NUME
                            RO ESTABLECIDO 
0124   00C5           00179                                 MOVWF           CUENTASP1       ;
                      00180                                 ;-----------------------------------------------------------------------
                            ------------------------------------------------------------------------------------------------
0125   224D           00181 CIRCULOSP               CALL            desplegar_u_bcd  ;despliega UNI
0126   2257           00182                                 CALL            desplegar_d_bcd ; despliega DECE
0127   2400           00183                                 CALL            tmedio_s                ; RETARDO DE MEDIO SEGUNDO
0128   30FF           00184                                 MOVLW           H'FF'                   ; despliega NADA 
0129   0086           00185                                 MOVWF           PORTB                   ; despliega NADA 
012A   1705           00186                                 BSF             PORTA,6         ; despliega NADA 
012B   2400           00187                                 CALL            tmedio_s        ; RETARDO DE MEDIO SEGUNDO
012C   0BC5           00188                                 DECFSZ  CUENTASP1,1     ;                       
012D   2925           00189                                 GOTO            CIRCULOSP
                      00190                                 ; ========== recuperacion de reg import =============
                      00191                                 ;MOVF           PCLATH_TEMP,0           ;Restore PCLATH                 
                                                    ;codigo propuesto por hoja de especificaciones
                      00192                                 ;MOVWF  PCL                                     ;Move W into PCLATH     
                                                            ;codigo propuesto por hoja de especificaciones
012E   0E29           00193 SIGUEPROG               SWAPF           STATUS_TEMP,0           ;Swap STATUS_TEMP register into W       
                            ;codigo propuesto por hoja de especificaciones
                      00194                                                                                                         
                            ;(sets bank to original state)                                  ;codigo propuesto por hoja de es
012F   0083           00195                                 MOVWF   STATUS                          ;Move W into STATUS register    
                                            ;codigo propuesto por hoja de especificaciones
0130   0EAB           00196                                 SWAPF           W_TEMP,1                                ;Swap W_TEMP    
                                                                    ;codigo propuesto por hoja de especificaciones
0131   0E2B           00197                                 SWAPF           W_TEMP,0                                ;Swap W_TEMP int
                            o W                             ;codigo propuesto por hoja de especificaciones
                      00198                                 ;==============================================
0132   108B           00199                                 BCF             INTCON,1                                ;limpia bandera 
                            de interrupcion RB0                                             
MPASM 03.60 Released                   INTERRUPCION_SP V8.ASM   8-14-2007  10:34:48         PAGE  6


LOC  OBJECT CODE     LINE SOURCE TEXT
  VALUE

0133   0009           00200                                 RETFIE                                                          ;regresa
                             de la interrupcion
                      00201 ;}}}}}}}}}}}}}}}}}}}}}}}}}}}}}}}}}}}}}}}}}}}}}}}}}}}}}}}}}}}}}}}}}}}}}}}}}} TERMINA SUBRUTINA DE INTERRU
                            PCION }}}}}}}}}}}}}}}}}}}}}}}}}}}}}}}}}}}}}}}}}}}}}}}}}}}}}}}}}}}}}}}}}}}}}}}}}}}}}}}}}}}}}}}}}}
                      00202 
                      00203 ;#############SUBRUTINAS DE RETRASO DE TIEMPO###########################################################
                            #######################################
0400                  00204                                                 ORG             0x400                           ; 1024
                      00205 
                      00206 ;#######################################################################################################
                            ############################################
                      00207 
                      00208 ;#######################################################################################################
                            ############
0400   240B           00209 tmedio_s                CALL            t50msTMR0
0401   240B           00210                                 CALL            t50msTMR0                       ;100 ms
0402   240B           00211                                 CALL            t50msTMR0
0403   240B           00212                                 CALL            t50msTMR0                       ;200 ms
0404   240B           00213                                 CALL            t50msTMR0
0405   240B           00214                                 CALL            t50msTMR0                       ; 300 ms
0406   240B           00215                                 CALL            t50msTMR0
0407   240B           00216                                 CALL            t50msTMR0                       ; 400 ms 
0408   240B           00217                                 CALL            t50msTMR0
0409   240B           00218                                 CALL            t50msTMR0                       ; 500 ms
040A   0008           00219                                 RETURN
                      00220 ;#######################################################################################################
                            ##############################
                      00221 t50msTMR0                               BANCO1
040B   1683               M                         BSF     STATUS,RP0      ; por PCLATH<4:3>
040C   1303               M                         BCF     STATUS,RP1      ; Cuando se hace una instruccion CALL o GOTO, el usuario
                             debe asegurar que los bits seleccionados de la pagina
Message[302]: Register in operand not in bank 0.  Ensure that bank bits are correct.
040D   1281           00222                                                 BCF             OPTION_REG,5            ; 0 = Internal i
                            nstruction cycle clock (CLKO)   |
Message[302]: Register in operand not in bank 0.  Ensure that bank bits are correct.
040E   1181           00223                                                 BCF             OPTION_REG,3            ; 0= pre scaler 
                            asignado al TMR0                        |       
                      00224                                                 ;-------------------------------------------------------
                            ------------------------------------------------------------------------------------------------
Message[302]: Register in operand not in bank 0.  Ensure that bank bits are correct.
040F   1501           00225                                                 BSF             OPTION_REG,2            ; PS<2:0>: Presc
                            aler Rate Select bits           | QUITAR contar estos microsegundos
Message[302]: Register in operand not in bank 0.  Ensure that bank bits are correct.
0410   1481           00226                                                 BSF             OPTION_REG,1            ; 111           
                            1:256                                           | en el retardo
Message[302]: Register in operand not in bank 0.  Ensure that bank bits are correct.
0411   1401           00227                                                 BSF             OPTION_REG,0            ; preescalador a
                             256                                            |
                      00228                                                 ;-------------------------------------------------------
                            ------------------------------------------------------------------------------------------------
                      00229                                                 BANCO0
0412   1283               M                         BCF     STATUS,RP0      ; las instrucciones CALL and GOTO proveen solo 11 bits d
                            e direccion para permitir saltar dentro de alguna pagina de 
MPASM 03.60 Released                   INTERRUPCION_SP V8.ASM   8-14-2007  10:34:48         PAGE  7


LOC  OBJECT CODE     LINE SOURCE TEXT
  VALUE

0413   1303               M                         BCF     STATUS,RP1      ; de memoria de programa de 2K
0414   303C           00230 PRECARGA                                MOVLW            H'3C'                  ; 50ms -->
0415   0081           00231                                                 MOVWF           TMR0                    ;       TMR0 =  
                            [255 - {(fxt)(temporizacion deseada)}/(4*divisor de frecuencia)]
0416   1D0B           00232 AGUANTAretraso50ms      BTFSS           INTCON,T0IF
0417   2C16           00233                                                 GOTO            AGUANTAretraso50ms
0418   110B           00234                                                 BCF             INTCON,T0IF             ; limpiar bander
                            a 
0419   0008           00235                                                 RETURN                                  ;Cuando se carga
                             un valor en el registro TMR0 (se escribe mediante una
                      00236                                                                                                         
                            ;instrucción), se produce un retardo de dos ciclos de instrucción durante los
                      00237                                                                                                         
                            ;cuales se inhibe tanto el prescaler como TMR0. Será necesario tener en cuenta
                      00238                                                                                                         
                            ;esa inhibición temporal a la hora de realizar una precarga (compensar sumando
                      00239                                                                                                         
                            ;los ciclos de instrucción que “se pierden”)
                      00240 ;#######################################################################################################
                            ################
041A                  00241 t_20micros
                      00242 t_adq_20micros                  BANCO0                                  ;selecciona banco 0
041A   1283               M                         BCF     STATUS,RP0      ; las instrucciones CALL and GOTO proveen solo 11 bits d
                            e direccion para permitir saltar dentro de alguna pagina de 
041B   1303               M                         BCF     STATUS,RP1      ; de memoria de programa de 2K
041C   3006           00243                                                 MOVLW           H'06'                   ; (1) ciclo de i
                            nstruccion
041D   00B6           00244                                                 MOVWF           T_ADQ                   ; (1)
041E   0BB6           00245 esp_t_adq                               DECFSZ  T_ADQ,1         ; (1)           el decremento lo pone en
                             el mismo registro
041F   2C1E           00246                                                 GOTO            esp_t_adq               ; (2)           
                                                    
0420   0008           00247                                                 RETURN                                  ; (2)           
                            20-4=16;          (3 ciclos)x(6)=18,         en realidad serian como 22 microsegundos
                      00248 ;#######################################################################################################
                            #########
                      00249 t1_ms                                   BANCO1                                  ; (2) CALL 
0421   1683               M                         BSF     STATUS,RP0      ; por PCLATH<4:3>
0422   1303               M                         BCF     STATUS,RP1      ; Cuando se hace una instruccion CALL o GOTO, el usuario
                             debe asegurar que los bits seleccionados de la pagina
Message[302]: Register in operand not in bank 0.  Ensure that bank bits are correct.
0423   1281           00250                                                 BCF             OPTION_REG,5    ;(1)    ; 0 = Internal i
                            nstruction cycle clock (CLKO)   |
Message[302]: Register in operand not in bank 0.  Ensure that bank bits are correct.
0424   1181           00251                                                 BCF             OPTION_REG,3    ;(1)    ; 0= pre scaler 
                            asignado al TMR0                        |       
                      00252                                                 ;-------------------------------------------------------
                            ------------------------------------------------------------------------------------------------
Message[302]: Register in operand not in bank 0.  Ensure that bank bits are correct.
0425   1501           00253                                                 BSF             OPTION_REG,2    ;(1)    ; PS<2:0>: Presc
                            aler Rate Select bits           | QUITAR contar estos microsegundos
Message[302]: Register in operand not in bank 0.  Ensure that bank bits are correct.
0426   1481           00254                                                 BSF             OPTION_REG,1    ;(1)    ; 111           
MPASM 03.60 Released                   INTERRUPCION_SP V8.ASM   8-14-2007  10:34:48         PAGE  8


LOC  OBJECT CODE     LINE SOURCE TEXT
  VALUE

                            1:256                                           | en el retardo
Message[302]: Register in operand not in bank 0.  Ensure that bank bits are correct.
0427   1401           00255                                                 BSF             OPTION_REG,0    ;(1)    ; preescalador a
                             256                                            |
                      00256                                                 ;-------------------------------------------------------
                            ------------------------------------------------------------------------------------------------
                      00257                                                 BANCO0
0428   1283               M                         BCF     STATUS,RP0      ; las instrucciones CALL and GOTO proveen solo 11 bits d
                            e direccion para permitir saltar dentro de alguna pagina de 
0429   1303               M                         BCF     STATUS,RP1      ; de memoria de programa de 2K
042A   30FB           00258 PRECARGA_un_ms          MOVLW            H'FB'                  ;(1)    ; 
042B   0081           00259                                                 MOVWF           TMR0                    ;(1)    ;       
                            TMR0 =  [255 - {(fxt)(temporizacion deseada)}/(4*divisor de frecuencia)]
042C   1D0B           00260 AGUANTA_un_ms           BTFSS           INTCON,T0IF             ;(2) ;          TMR0 =  [255 - {(4MHz)(1
                            ms)}/(4*256)]= 255 - 3.9 = 255-4 = 251d=FB
042D   2C2C           00261                                                 GOTO            AGUANTA_un_ms           ;(2)
042E   110B           00262                                                 BCF             INTCON,T0IF             ;(1)    ; limpia
                            r bandera 
042F   0008           00263                                                 RETURN                                  ;(2)
                      00264                                                                                                         
                            ;Cuando se carga un valor en el registro TMR0 (se escribe mediante una
                      00265                                                                                                         
                            ;instrucción), se produce un retardo de dos ciclos de instrucción durante los
                      00266                                                                                                         
                            ;cuales se inhibe tanto el prescaler como TMR0. Será necesario tener en cuenta
                      00267                                                                                                         
                            ;esa inhibición temporal a la hora de realizar una precarga (compensar sumando
                      00268                                                                                                         
                            ;los ciclos de instrucción que “se pierden”)
                      00269 ;#######################################################################################################
                            ########
                      00270 t100_micros             BANCO0                                  ;selecciona banco 0
0430   1283               M                         BCF     STATUS,RP0      ; las instrucciones CALL and GOTO proveen solo 11 bits d
                            e direccion para permitir saltar dentro de alguna pagina de 
0431   1303               M                         BCF     STATUS,RP1      ; de memoria de programa de 2K
0432   3020           00271                                 MOVLW           H'20'                   ; (1) ciclo de instruccion
0433   00B6           00272                                 MOVWF           T_ADQ                   ; (1)
0434   0BB6           00273 esp_100micros   DECFSZ  T_ADQ,1         ; (1)           el decremento lo pone en el mismo registro
0435   2C34           00274                                 GOTO            esp_100micros   ; (2)                                   
0436   0008           00275                                 RETURN                                  ; (2)           100-4=96;       
                              (3 ciclos)x(32)=96            32d=20h
                      00276 ;#######################################################################################################
                            ########
                      00277 t250_micros             BANCO0                                  ;selecciona banco 0
0437   1283               M                         BCF     STATUS,RP0      ; las instrucciones CALL and GOTO proveen solo 11 bits d
                            e direccion para permitir saltar dentro de alguna pagina de 
0438   1303               M                         BCF     STATUS,RP1      ; de memoria de programa de 2K
0439   3052           00278                                 MOVLW           H'52'                   ; (1) ciclo de instruccion
043A   00B6           00279                                 MOVWF           T_ADQ                   ; (1)
043B   0BB6           00280 esp_t250_micros DECFSZ  T_ADQ,1         ; (1)           el decremento lo pone en el mismo registro
043C   2C3B           00281                                 GOTO            esp_t250_micros ; (2)                                   
043D   0008           00282                                 RETURN                                  ; (2)           250-4=246;      
                              (3 ciclos)x(82)=246;  82d=52h
MPASM 03.60 Released                   INTERRUPCION_SP V8.ASM   8-14-2007  10:34:48         PAGE  9


LOC  OBJECT CODE     LINE SOURCE TEXT
  VALUE

                      00283 ;#######################################################################################################
                            ########
                      00284 t600_micros             BANCO0                                  ;selecciona banco 0
043E   1283               M                         BCF     STATUS,RP0      ; las instrucciones CALL and GOTO proveen solo 11 bits d
                            e direccion para permitir saltar dentro de alguna pagina de 
043F   1303               M                         BCF     STATUS,RP1      ; de memoria de programa de 2K
0440   30C7           00285                                 MOVLW           H'C7'                   ; (1) ciclo de instruccion
0441   00B6           00286                                 MOVWF           T_ADQ                   ; (1)
0442   0BB6           00287 esp_t600_micros DECFSZ  T_ADQ,1         ; (1)           el decremento lo pone en el mismo registro
0443   2C42           00288                                 GOTO            esp_t600_micros ; (2)                                   
0444   0008           00289                                 RETURN                                  ; (2)           600-4=596;      
                              (3 ciclos)x()=496;    199d=C7h
                      00290 ;#######################################################################################################
                            ########
                      00291 t500_micros             BANCO0                                  ;selecciona banco 0
0445   1283               M                         BCF     STATUS,RP0      ; las instrucciones CALL and GOTO proveen solo 11 bits d
                            e direccion para permitir saltar dentro de alguna pagina de 
0446   1303               M                         BCF     STATUS,RP1      ; de memoria de programa de 2K
0447   30A5           00292                                 MOVLW           H'A5'                   ; (1) ciclo de instruccion
0448   00B6           00293                                 MOVWF           T_ADQ                   ; (1)
0449   0BB6           00294 esp_t500_micros DECFSZ  T_ADQ,1         ; (1)           el decremento lo pone en el mismo registro
044A   2C49           00295                                 GOTO            esp_t500_micros ; (2)                                   
044B   0008           00296                                 RETURN                                  ; (2)           500-4=496;      
                              (3 ciclos)x()=496;    165d=A5h
                      00297 ;#######################################################################################################
                            ########
                      00298 t83_micros              BANCO0                                  ;selecciona banco 0
044C   1283               M                         BCF     STATUS,RP0      ; las instrucciones CALL and GOTO proveen solo 11 bits d
                            e direccion para permitir saltar dentro de alguna pagina de 
044D   1303               M                         BCF     STATUS,RP1      ; de memoria de programa de 2K
044E   301A           00299                                 MOVLW           H'1A'                   ; (1) ciclo de instruccion
044F   00B6           00300                                 MOVWF           T_ADQ                   ; (1)
0450   0BB6           00301 esp_83micros    DECFSZ  T_ADQ,1         ; (1)           el decremento lo pone en el mismo registro
0451   2C50           00302                                 GOTO            esp_83micros    ; (2)                                   
0452   0008           00303                                 RETURN                                  ; (2)           83-4=79;        
                              (3 ciclos)x()=26.3333         26d=1Ah
                      00304 ;#######################################################################################################
                            ########
                      00305 ;######################SUBRUTINAS DE CONFIGURACION DE REGISTROS Y PERIFERICOS ##########################
                            #########################################################################
0200                  00306                                                 ORG             0x200
                      00307 ;------------ subrutina que configura unidades -------------------------------------------
                      00308 configura_unidades      BANCO0
0200   1283               M                         BCF     STATUS,RP0      ; las instrucciones CALL and GOTO proveen solo 11 bits d
                            e direccion para permitir saltar dentro de alguna pagina de 
0201   1303               M                         BCF     STATUS,RP1      ; de memoria de programa de 2K
                      00309                                         ;CALL           REBOTE
Message[305]: Using default destination of 1 (file).
0202   0BA4           00310                                         DECFSZ  UNI
0203   2A08           00311                                         GOTO            SIGUE_U
0204   2A05           00312                                         GOTO            VUELVE_a9U
0205   224D           00313 VUELVE_a9U              CALL            desplegar_u_bcd
0206   3009           00314                                         MOVLW           H'09'
MPASM 03.60 Released                   INTERRUPCION_SP V8.ASM   8-14-2007  10:34:48         PAGE 10


LOC  OBJECT CODE     LINE SOURCE TEXT
  VALUE

0207   00A4           00315                                         MOVWF           UNI             
0208   224D           00316 SIGUE_U                 CALL            desplegar_u_bcd
0209   1A05           00317 AUN_SIGUE_U             BTFSC           PORTA,4
020A   2A09           00318                                         GOTO            AUN_SIGUE_U
020B   0008           00319                                         RETURN
                      00320 ;------------ subrutina que configura decenas --------------------------------------------------
                      00321 configura_decenas       BANCO0
020C   1283               M                         BCF     STATUS,RP0      ; las instrucciones CALL and GOTO proveen solo 11 bits d
                            e direccion para permitir saltar dentro de alguna pagina de 
020D   1303               M                         BCF     STATUS,RP1      ; de memoria de programa de 2K
                      00322                                         ;CALL           REBOTE
Message[305]: Using default destination of 1 (file).
020E   0BA5           00323                                         DECFSZ  DECE
020F   2A14           00324                                         GOTO            SIGUE_D
0210   2A11           00325                                         GOTO            VUELVE_a9D
0211   2257           00326 VUELVE_a9D              CALL            desplegar_d_bcd
0212   3009           00327                                         MOVLW           H'09'
0213   00A5           00328                                         MOVWF           DECE            
0214   2257           00329 SIGUE_D                 CALL            desplegar_d_bcd
0215   1A05           00330 AUN_SIGUE_D             BTFSC           PORTA,4
0216   2A15           00331                                         GOTO            AUN_SIGUE_D
0217   0008           00332                                         RETURN
                      00333 ;#######################################################################################################
                            ############
                      00334 limpia_registros                BANCO0
0218   1283               M                         BCF     STATUS,RP0      ; las instrucciones CALL and GOTO proveen solo 11 bits d
                            e direccion para permitir saltar dentro de alguna pagina de 
0219   1303               M                         BCF     STATUS,RP1      ; de memoria de programa de 2K
021A   0185           00335                                         CLRF            PORTA                                           
                                    ; limpia puerto A
021B   0186           00336                                         CLRF            PORTB                                           
                                    ; limpia puerto B
                      00337                                         ;***************************************************************
                            *
021C   01A4           00338                                         CLRF            UNI                             
021D   01A5           00339                                         CLRF            DECE                    
021E   01A6           00340                                         CLRF            SP                              
021F   01A7           00341                                         CLRF            uni_comodin             
0220   01A8           00342                                         CLRF            dece_comodin    
0221   01A9           00343                                         CLRF            STATUS_TEMP     
0222   01AA           00344                                         CLRF            PCLATH_TEMP     
0223   01AB           00345                                         CLRF            W_TEMP          
                      00346                                         ;**************************************************
0224   01AC           00347                                         CLRF            BINARIO                 
0225   01AD           00348                                         CLRF            CONTADOR1       
0226   01AE           00349                                         CLRF            CONTADOR2       
0227   01AF           00350                                         CLRF            CONTADOR3       
                      00351                                         ;********************** 
0228   01B0           00352                                         CLRF            BCDH                    
0229   01B1           00353                                         CLRF            BCDL                    
022A   01B2           00354                                         CLRF            BCD_TEMP                
022B   01C4           00355                                         CLRF            CUENTA          
022C   01B4           00356                                         CLRF            BIN                             
MPASM 03.60 Released                   INTERRUPCION_SP V8.ASM   8-14-2007  10:34:48         PAGE 11


LOC  OBJECT CODE     LINE SOURCE TEXT
  VALUE

022D   01B5           00357                                         CLRF            BIN_comodin                                     
                                            
                      00358                                                         
022E   01B7           00359                                         CLRF            SEIS_CERO               
022F   01B8           00360                                         CLRF            NUEVE_NUEVE
0230   0008           00361                                         RETURN
                      00362 ;#######################################################################################################
                            #########
                      00363 configura_oscilador     BANCO1                  ; selecciona Banco 1; Se encuentran registros TRISA y TR
                            ISB
0231   1683               M                         BSF     STATUS,RP0      ; por PCLATH<4:3>
0232   1303               M                         BCF     STATUS,RP1      ; Cuando se hace una instruccion CALL o GOTO, el usuario
                             debe asegurar que los bits seleccionados de la pagina
                      00364                                                                                 ; al reset STATUS=000000
                            00
                      00365                                                                                 ; REGISTRO STATUS =     
                            IRP             RP1             RP0             T0_             PD_             Z               
                      00366                                                                                 ;  RP1 RP0
                      00367                                                                                 ;  0            0       
                                    banco 0
                      00368                                                                                 ;  0            1       
                                    banco 1         RP0=1
                      00369                                                                                 ;  1            0       
                                    banco 2
                      00370                                                                                 ;  1            1       
                                    banco 3
Message[302]: Register in operand not in bank 0.  Ensure that bank bits are correct.
0233   170F           00371                                         BSF     OSCCON,6        ;Pone el oscilador a 4 MHz con el oscila
                            dor interno RC; OSCCON controla varios aspectos de operacion del sistema de reloj; Banco 1
Message[302]: Register in operand not in bank 0.  Ensure that bank bits are correct.
0234   168F           00372                                         BSF     OSCCON,5        ;bit 6-4                110             
                            4 MHZ
                      00373                                                                                 ;al reset inicia con 0's
                             el registro.
0235   0008           00374                                         RETURN
                      00375 ;#######################################################################################################
                            ############################
                      00376 ;##### CONFIGURA LOS PUERTOS  A y B, (A0,A1,A2,A3 = ENTRADAS)  (A4,A5,A6,A7=SALIDAS),  (B0,B1,B2,B3 = EN
                            TRADAS)  (B4,B5,B6,B7=SALIDAS) ##################
                      00377 configura_puertos       BANCO1                                  ;;Puerto A como salida          0 - sali
                            da;     1 - entrada
0236   1683               M                         BSF     STATUS,RP0      ; por PCLATH<4:3>
0237   1303               M                         BCF     STATUS,RP1      ; Cuando se hace una instruccion CALL o GOTO, el usuario
                             debe asegurar que los bits seleccionados de la pagina
0238   30AC           00378                                 MOVLW           B'10101100'             ; RA7   RA6             RA5     
                                    RA4             RA3             RA2             RA1             RA0
Message[302]: Register in operand not in bank 0.  Ensure that bank bits are correct.
0239   0085           00379                                 MOVWF           TRISA                   ;    1            0             
                              1               0               1                1               1               1    
                      00380                                 ;-----------------------------------------------------------------------
                            ------------------------------------------------------------------------------------------------
023A   3001           00381                                 MOVLW           B'00000001'             ; RB7   RB6             RB5     
                                    RB4             RB3             RB2             RB1             RB0
MPASM 03.60 Released                   INTERRUPCION_SP V8.ASM   8-14-2007  10:34:48         PAGE 12


LOC  OBJECT CODE     LINE SOURCE TEXT
  VALUE

Message[302]: Register in operand not in bank 0.  Ensure that bank bits are correct.
023B   0086           00382                                 MOVWF           TRISB                   ;    0            0             
                              0               0               0                0               0               1            
                      00383                                 ;-----------------------------------------------------------------------
                            ------------------------------------------------------------------------------------------------
023C   0008           00384                                 RETURN
                      00385 ;#######################################################################################################
                            ##############                                                  
                      00386 ;########################################### CONFIGURAR INTERRUPCIONES  ################################
                            #######################
                      00387 configura_interrupciones        BANCO1
023D   1683               M                         BSF     STATUS,RP0      ; por PCLATH<4:3>
023E   1303               M                         BCF     STATUS,RP1      ; Cuando se hace una instruccion CALL o GOTO, el usuario
                             debe asegurar que los bits seleccionados de la pagina
                      00388                 
Message[302]: Register in operand not in bank 0.  Ensure that bank bits are correct.
023F   1301           00389                                                 BCF             OPTION_REG,INTEDG                       
                                    ; activa por flanco de bajada, bit INTEDG
                      00390                                                 ;-----------------------------------------------------  
                            HABILITACION DE INTERRUPCIONES -----------------------------------------------------------------
0240   160B           00391                                                 BSF             INTCON, INTE                            
                                                    ; que sea interrupcion externa por RB0, bit INTE bit 4
0241   178B           00392                                                 BSF             INTCON, GIE                             
                                                    ; habilitamos interrupcion global GIE bit 7
                      00393                                                                                                         
                                                                    ; INTCON TAMBIEN ESTA EN BANCO 1
0242   0008           00394                                                 RETURN
                      00395 ;#######################################################################################################
                            ####################################;################################ PARA QUE NO SE PIERDA AQUI
                      00396 ; movemos el registro BCDL al puerto B y el bit0 del registro BCDL al pin1 del puerto A
                      00397 desplegar_bin_bcd       BANCO0
0243   1283               M                         BCF     STATUS,RP0      ; las instrucciones CALL and GOTO proveen solo 11 bits d
                            e direccion para permitir saltar dentro de alguna pagina de 
0244   1303               M                         BCF     STATUS,RP1      ; de memoria de programa de 2K
0245   0831           00398                                         MOVF            BCDL,0          ; mueve el reg BCDL al registro 
                            W
0246   0086           00399                                         MOVWF           PORTB           ; mueve el registro W al PORTB
0247   1C31           00400                                         BTFSS           BCDL,0          ; salta si hay un '1' en el bit0
                             del registro BCDL
0248   2A4B           00401                                         GOTO            pon_cero        ; salta a etiqueta SIGUE
0249   1705           00402                                         BSF             PORTA,6 ; pon un '1' en el pin1 del PUERTO A
024A   2A4C           00403                                         GOTO            termina
024B   1305           00404 pon_cero                        BCF             PORTA,6 ; pon un '0' en el pin1 del puerto A            
                                                    
024C   0008           00405 termina                         RETURN                                  
                      00406 ;###################################################################
                      00407 desplegar_u_bcd         BANCO0
024D   1283               M                         BCF     STATUS,RP0      ; las instrucciones CALL and GOTO proveen solo 11 bits d
                            e direccion para permitir saltar dentro de alguna pagina de 
024E   1303               M                         BCF     STATUS,RP1      ; de memoria de programa de 2K
024F   0824           00408                                         MOVF            UNI,0           ; mueve el reg UNI al registro W
0250   0086           00409                                         MOVWF           PORTB           ; mueve el registro W al PORTB
0251   1C24           00410                                         BTFSS           UNI,0           ; salta si hay un '1' en el bit0
MPASM 03.60 Released                   INTERRUPCION_SP V8.ASM   8-14-2007  10:34:48         PAGE 13


LOC  OBJECT CODE     LINE SOURCE TEXT
  VALUE

                             del registro UNI
0252   2A55           00411                                         GOTO            pon_ceroU       ; salta a etiqueta SIGUE
0253   1705           00412                                         BSF             PORTA,6 ; pon un '1' en el pin1 del PUERTO A
0254   2A56           00413                                         GOTO            terminaU
0255   1305           00414 pon_ceroU                       BCF             PORTA,6 ; pon un '0' en el pin1 del puerto A            
                                                    
0256   0008           00415 terminaU                                RETURN                                  
                      00416 ;###################################################################
                      00417 desplegar_d_bcd         BANCO0
0257   1283               M                         BCF     STATUS,RP0      ; las instrucciones CALL and GOTO proveen solo 11 bits d
                            e direccion para permitir saltar dentro de alguna pagina de 
0258   1303               M                         BCF     STATUS,RP1      ; de memoria de programa de 2K
0259   0825           00418                                         MOVF            DECE,0                          ; mueve el reg D
                            ECE_com al registro W
025A   00B9           00419                                         MOVWF           DECE_com
                      00420                                         ;---------------------------------------------------------------
                            ------------------------------------------------------------------------------------------------
025B   0DB9           00421                                         RLF             DECE_com,1
025C   0DB9           00422                                         RLF             DECE_com,1
025D   0DB9           00423                                         RLF             DECE_com,1
025E   0DB9           00424                                         RLF             DECE_com,1
                      00425                                         ;---------------------------------------------------------------
                            ------------------------------------------------------------------------------------------------
025F   0839           00426                                         MOVF            DECE_com,0              ; mueve el reg DECE_com 
                            al registro W
                      00427                                         ;---------------------------------------------------------------
                            ------------------------------------------------------------------------------------------------
0260   0606           00428                                         XORWF           PORTB,0 ; xor el registro W con con el puerto B
0261   0086           00429                                         MOVWF           PORTB           ; mueve el registro W al puerto 
                            B
0262   1C25           00430                                         BTFSS           DECE,0          ; salta si hay un '1' en el bit0
                             del registro DECE
0263   2A66           00431                                         GOTO            pon_ceroD       ; salta a etiqueta SIGUE
0264   1705           00432                                         BSF             PORTA,6 ; pon un '1' en el pin1 del PUERTO A
0265   2A67           00433                                         GOTO            terminaD
0266   1305           00434 pon_ceroD                       BCF             PORTA,6 ; pon un '0' en el pin1 del puerto A            
                                                    
0267   0008           00435 terminaD                        RETURN                                  
                      00436 ;#######################################################################################################
                            ###################
                      00437                                 END
MPASM 03.60 Released                   INTERRUPCION_SP V8.ASM   8-14-2007  10:34:48         PAGE 14


SYMBOL TABLE
  LABEL                             VALUE 

ACCION_out                        00000121
ADCON0                            0000001F
ADCON1                            0000009F
ADCS0                             00000006
ADCS1                             00000007
ADCS2                             00000006
ADDEN                             00000003
ADFM                              00000007
ADIE                              00000006
ADIF                              00000006
ADON                              00000000
ADRESH                            0000001E
ADRESL                            0000009E
AGUANTA_un_ms                     0000042C
AGUANTAretraso50ms                00000416
ANSEL                             0000009B
AUN_SIGUE_D                       00000215
AUN_SIGUE_U                       00000209
BANCO0                            
BANCO1                            
BANCO2                            
BANCO3                            
BCDH                              00000030
BCDL                              00000031
BCD_TEMP                          00000032
BF                                00000000
BIN                               00000034
BINARIO                           0000002C
BIN_comodin                       00000035
BRGH                              00000002
C                                 00000000
C1INV                             00000004
C1OUT                             00000006
C2INV                             00000005
C2OUT                             00000007
CCP1CON                           00000017
CCP1IE                            00000002
CCP1IF                            00000002
CCP1M0                            00000000
CCP1M1                            00000001
CCP1M2                            00000002
CCP1M3                            00000003
CCP1X                             00000005
CCP1Y                             00000004
CCPR1H                            00000016
CCPR1L                            00000015
CHS0                              00000003
CHS1                              00000004
CHS2                              00000005
CIRCULOSP                         00000125
CIS                               00000003
CKE                               00000006
CKP                               00000004
MPASM 03.60 Released                   INTERRUPCION_SP V8.ASM   8-14-2007  10:34:48         PAGE 15


SYMBOL TABLE
  LABEL                             VALUE 

CM0                               00000000
CM1                               00000001
CM2                               00000002
CMCON                             0000009C
CMIE                              00000006
CMIF                              00000006
COM                               00000042
CONTADOR1                         0000002D
CONTADOR2                         0000002E
CONTADOR3                         0000002F
CONTADOR_D_PULS                   00000041
CREN                              00000004
CSRC                              00000007
CUENTA                            00000044
CUENTA100                         00000033
CUENTA100_com                     00000043
CUENTASP1                         00000045
CUENTASP2                         00000046
CUENTASP3                         00000047
CUENTASP4                         00000048
CVR0                              00000000
CVR1                              00000001
CVR2                              00000002
CVR3                              00000003
CVRCON                            0000009D
CVREN                             00000007
CVROE                             00000006
CVRR                              00000005
D                                 00000005
DATA_ADDRESS                      00000005
DC                                00000001
DECE                              00000025
DECE_com                          00000039
DEC_CUENTA                        00000021
D_A                               00000005
D_SIGUE_1                         00000118
EEADR                             0000010D
EEADRH                            0000010F
EECON1                            0000018C
EECON2                            0000018D
EEDATA                            0000010C
EEDATH                            0000010E
EEIE                              00000004
EEIF                              00000004
EEPGD                             00000007
F                                 00000001
FERR                              00000002
FINALIZA                          00000025
FREE                              00000004
FSR                               00000004
GIE                               00000007
GO                                00000002
GO_DONE                           00000002
MPASM 03.60 Released                   INTERRUPCION_SP V8.ASM   8-14-2007  10:34:48         PAGE 16


SYMBOL TABLE
  LABEL                             VALUE 

HAZ1                              00000015
I2C_DATA                          00000005
I2C_READ                          00000002
I2C_START                         00000003
I2C_STOP                          00000004
INDF                              00000000
INICIA_SP                         00000104
INICIO                            00000005
INICIO_PRINC                      00000009
INTCON                            0000000B
INTE                              00000004
INTEDG                            00000006
INTF                              00000001
IOFS                              00000002
IRCF0                             00000004
IRCF1                             00000005
IRCF2                             00000006
IRP                               00000007
NOT_A                             00000005
NOT_ADDRESS                       00000005
NOT_BO                            00000000
NOT_BOR                           00000000
NOT_DONE                          00000002
NOT_PD                            00000003
NOT_POR                           00000001
NOT_RBPU                          00000007
NOT_RC8                           00000006
NOT_T1SYNC                        00000002
NOT_TO                            00000004
NOT_TX8                           00000006
NOT_W                             00000002
NOT_WRITE                         00000002
NUEVE_NUEVE                       00000038
OERR                              00000001
OPTION_REG                        00000081
OSCCON                            0000008F
OSCTUNE                           00000090
OSFIE                             00000007
OSFIF                             00000007
OSTS                              00000003
OTRA_VEZ                          00000109
P                                 00000004
PCL                               00000002
PCLATH                            0000000A
PCLATH_TEMP                       0000002A
PCON                              0000008E
PEIE                              00000006
PIE1                              0000008C
PIE2                              0000008D
PIR1                              0000000C
PIR2                              0000000D
PORTA                             00000005
PORTB                             00000006
MPASM 03.60 Released                   INTERRUPCION_SP V8.ASM   8-14-2007  10:34:48         PAGE 17


SYMBOL TABLE
  LABEL                             VALUE 

PR2                               00000092
PRECARGA                          00000414
PRECARGA_un_ms                    0000042A
PS0                               00000000
PS1                               00000001
PS2                               00000002
PSA                               00000003
QUITA_TIEMPO                      0000011B
R                                 00000002
RBIE                              00000003
RBIF                              00000000
RC8_9                             00000006
RC9                               00000006
RCD8                              00000000
RCIE                              00000005
RCIF                              00000005
RCREG                             0000001A
RCSTA                             00000018
RD                                00000000
READ_WRITE                        00000002
REG_REBOTE1                       0000003E
REG_REBOTE2                       0000003F
RETARDO_PULSO                     00000040
RETARDO_PULSO_com                 00000042
REVISA_CRUCEx01                   00000010
REVISA_D                          00000115
REVISA_U                          0000010F
RP0                               00000005
RP1                               00000006
RX9                               00000006
RX9D                              00000000
R_W                               00000002
S                                 00000003
SALIR_AOTRO                       00000024
SCS0                              00000000
SCS1                              00000001
SEIS_CERO                         00000037
SIGUEPROG                         0000012E
SIGUE_D                           00000214
SIGUE_U                           00000208
SMP                               00000007
SP                                00000026
SPBRG                             00000099
SPEN                              00000007
SP_INTERRUPT                      00000100
SREN                              00000005
SSPADD                            00000093
SSPBUF                            00000013
SSPCON                            00000014
SSPEN                             00000005
SSPIE                             00000003
SSPIF                             00000003
SSPM0                             00000000
MPASM 03.60 Released                   INTERRUPCION_SP V8.ASM   8-14-2007  10:34:48         PAGE 18


SYMBOL TABLE
  LABEL                             VALUE 

SSPM1                             00000001
SSPM2                             00000002
SSPM3                             00000003
SSPOV                             00000006
SSPSTAT                           00000094
STATUS                            00000003
STATUS_TEMP                       00000029
SWDTE                             00000000
SWDTEN                            00000000
SYNC                              00000004
T0CS                              00000005
T0IE                              00000005
T0IF                              00000002
T0SE                              00000004
T1CKPS0                           00000004
T1CKPS1                           00000005
T1CON                             00000010
T1INSYNC                          00000002
T1OSCEN                           00000003
T1RUN                             00000006
T2CKPS0                           00000000
T2CKPS1                           00000001
T2CON                             00000012
TMR0                              00000001
TMR0IE                            00000005
TMR0IF                            00000002
TMR1CS                            00000001
TMR1H                             0000000F
TMR1IE                            00000000
TMR1IF                            00000000
TMR1L                             0000000E
TMR1ON                            00000000
TMR2                              00000011
TMR2IE                            00000001
TMR2IF                            00000001
TMR2ON                            00000002
TOUTPS0                           00000003
TOUTPS1                           00000004
TOUTPS2                           00000005
TOUTPS3                           00000006
TRISA                             00000085
TRISB                             00000086
TRMT                              00000001
TUN0                              00000000
TUN1                              00000001
TUN2                              00000002
TUN3                              00000003
TUN4                              00000004
TUN5                              00000005
TX8_9                             00000006
TX9                               00000006
TX9D                              00000000
TXD8                              00000000
MPASM 03.60 Released                   INTERRUPCION_SP V8.ASM   8-14-2007  10:34:48         PAGE 19


SYMBOL TABLE
  LABEL                             VALUE 

TXEN                              00000005
TXIE                              00000004
TXIF                              00000004
TXREG                             00000019
TXSTA                             00000098
T_ADQ                             00000036
UA                                00000001
UNI                               00000024
U_SIGUE_1                         00000112
VCFG0                             00000004
VCFG1                             00000005
VECES_MISMO_RET                   00000043
VUELVE_a9D                        00000211
VUELVE_a9U                        00000205
W                                 00000000
WCOL                              00000007
WDTCON                            00000105
WDTPS0                            00000001
WDTPS1                            00000002
WDTPS2                            00000003
WDTPS3                            00000004
WR                                00000001
WREN                              00000002
WRERR                             00000003
W_TEMP                            0000002B
Z                                 00000002
_BODEN_OFF                        00003FBF
_BODEN_ON                         00003FFF
_CCP1_RB0                         00003FFF
_CCP1_RB3                         00002FFF
_CONFIG1                          00002007
_CONFIG2                          00002008
_CPD_OFF                          00003FFF
_CPD_ON                           00003EFF
_CP_ALL                           00001FFF
_CP_OFF                           00003FFF
_DEBUG_OFF                        00003FFF
_DEBUG_ON                         000037FF
_EXTCLK                           00003FEF
_EXTRC_CLKOUT                     00003FFF
_EXTRC_IO                         00003FFE
_FCMEN_OFF                        00003FFE
_FCMEN_ON                         00003FFF
_HS_OSC                           00003FEE
_IESO_OFF                         00003FFD
_IESO_ON                          00003FFF
_INTRC_CLKOUT                     00003FFD
_INTRC_IO                         00003FFC
_LP_OSC                           00003FEC
_LVP_OFF                          00003F7F
_LVP_ON                           00003FFF
_MCLR_OFF                         00003FDF
_MCLR_ON                          00003FFF
MPASM 03.60 Released                   INTERRUPCION_SP V8.ASM   8-14-2007  10:34:48         PAGE 20


SYMBOL TABLE
  LABEL                             VALUE 

_PWRTE_OFF                        00003FFF
_PWRTE_ON                         00003FF7
_WDT_OFF                          00003FFB
_WDT_ON                           00003FFF
_WRT_ENABLE_1024                  00003BFF
_WRT_ENABLE_512                   00003DFF
_WRT_ENABLE_OFF                   00003FFF
_XT_OSC                           00003FED
__16F88                           00000001
configura_decenas                 0000020C
configura_interrupciones          0000023D
configura_oscilador               00000231
configura_puertos                 00000236
configura_unidades                00000200
dece_comodin                      00000028
desplegar_bin_bcd                 00000243
desplegar_d_bcd                   00000257
desplegar_u_bcd                   0000024D
esp_100micros                     00000434
esp_83micros                      00000450
esp_t250_micros                   0000043B
esp_t500_micros                   00000449
esp_t600_micros                   00000442
esp_t_adq                         0000041E
limpia_registros                  00000218
pon_cero                          0000024B
pon_ceroD                         00000266
pon_ceroU                         00000255
t100_micros                       00000430
t1_ms                             00000421
t250_micros                       00000437
t500_micros                       00000445
t50msTMR0                         0000040B
t600_micros                       0000043E
t83_micros                        0000044C
t_20micros                        0000041A
t_adq_20micros                    0000041A
termina                           0000024C
terminaD                          00000267
terminaU                          00000256
tmedio_s                          00000400
uni_comodin                       00000027
MPASM 03.60 Released                   INTERRUPCION_SP V8.ASM   8-14-2007  10:34:48         PAGE 21


MEMORY USAGE MAP ('X' = Used,  '-' = Unused)


0000 : X---XXXXXXXXXXXX XXXXXXXXXXXXXXXX XXXXXX---------- ----------------
0100 : XXXXXXXXXXXXXXXX XXXXXXXXXXXXXXXX XXXXXXXXXXXXXXXX XXXX------------
0200 : XXXXXXXXXXXXXXXX XXXXXXXXXXXXXXXX XXXXXXXXXXXXXXXX XXXXXXXXXXXXXXXX
0240 : XXXXXXXXXXXXXXXX XXXXXXXXXXXXXXXX XXXXXXXX-------- ----------------
0400 : XXXXXXXXXXXXXXXX XXXXXXXXXXXXXXXX XXXXXXXXXXXXXXXX XXXXXXXXXXXXXXXX
0440 : XXXXXXXXXXXXXXXX XXX------------- ---------------- ----------------

All other memory blocks unused.

Program Memory Words Used:   274
Program Memory Words Free:  3822


Errors   :     0
Warnings :     0 reported,     0 suppressed
Messages :    18 reported,     0 suppressed

