MPASM 03.60 Released                   INTERRUPCION_SP V2.ASM   8-3-2007  20:50:03         PAGE  1


LOC  OBJECT CODE     LINE SOURCE TEXT
  VALUE

                      00001 ;***************************************************************
                      00002                                 list    p=16F88
                      00003                                 #include        <p16F88.inc>
                      00001         LIST
                      00002 ; P16F88.INC  Standard Header File, Version 1.00    Microchip Technology, Inc.
                      00401         LIST
                      00004 ;***************************************************************
                      00005 BANCO0          MACRO
                      00006                         BCF     STATUS,RP0      
                      00007                         BCF     STATUS,RP1
                      00008                         ENDM
                      00009 BANCO1          MACRO
                      00010                         BSF     STATUS,RP0      
                      00011                         BCF     STATUS,RP1 
                      00012                         ENDM
                      00013 BANCO2          MACRO
                      00014                         BCF     STATUS,RP0      
                      00015                         BSF     STATUS,RP1 
                      00016                         ENDM
                      00017 BANCO3          MACRO
                      00018                         BSF     STATUS,RP0      
                      00019                         BSF     STATUS,RP1 
                      00020                         ENDM
                      00021 ;****************************************************************
                      00022 
  00000024            00023 UNI                             equ     24h
  00000025            00024 DECE                    equ     25h
  00000026            00025 SP                              equ     26h
  00000027            00026 uni_comodin             equ     27h
  00000028            00027 dece_comodin    equ     28h
  00000029            00028 STATUS_TEMP     equ 29h
  0000002A            00029 PCLATH_TEMP     equ 2Ah
  0000002B            00030 W_TEMP          equ     2Bh
                      00031 ;**************************************************
  0000002C            00032 BINARIO                 equ     2Ch
  0000002D            00033 CONTADOR1       equ 2Dh
  0000002E            00034 CONTADOR2       equ 2Eh
  0000002F            00035 CONTADOR3       equ 2Fh
                      00036 ;********************** 
  00000030            00037 BCDH                    equ 30h
  00000031            00038 BCDL                    equ 31h
  00000032            00039 BCD_TEMP                equ 32h
  00000033            00040 CUENTA          equ 33h
  00000034            00041 BIN                             equ 34h
  00000035            00042 BIN_comodin             equ 35h
  00000036            00043 T_ADQ                   equ 36h
                      00044 ;*************************************************
  00000037            00045 SEIS_CERO               equ     37h
  00000038            00046 NUEVE_NUEVE     equ  38h
                      00047 
                      00048 ;***************************************************************
  00000039            00049 DECE_com                equ     39h
  0000003A            00050 CUENTA_SP1      equ 3Ah
MPASM 03.60 Released                   INTERRUPCION_SP V2.ASM   8-3-2007  20:50:03         PAGE  2


LOC  OBJECT CODE     LINE SOURCE TEXT
  VALUE

  0000003B            00051 CUENTA_SP2      equ 3Bh
  0000003C            00052 CUENTA_SP3      equ 3Ch
  0000003D            00053 CUENTA_SP4      equ 3Dh
  0000003E            00054 REG_REBOTE1     equ 3Eh
  0000003F            00055 REG_REBOTE2     equ     3Fh
                      00056 ;____________________________________________
                      00057 
                      00058 ; RECORDATORIO DE EN DONDE SE ENCUENGRAN ALGUNOS REGISTROS 
                      00059 ;       ADRESH  1Eh             banco 0
                      00060 ;       ADRESL  9Eh             banco 1
                      00061 ;       ANSEL           9Bh             banco 1
                      00062 ;       ADCON0  1Fh             banco 0
                      00063 ;       ADCON1  9Fh             banco 1
                      00064 ;****************************************************************
                      00065 ;#######################################################################################################
                            ############################
0000                  00066                                                         ORG             0x0000
0000   2805           00067                                                         GOTO            INICIO
0004                  00068                                                         ORG             0x04
0004   2817           00069                                                         GOTO            SP_INTERRUPT
0005                  00070                                                         ORG             0x05
                      00071 ;#######################################################################################################
                            ############################
0005   20AA           00072 INICIO          CALL            limpia_registros
0006   20C1           00073                         CALL            configura_oscilador
0007   20D3           00074                         CALL            configura_TMR0
                      00075                         ;CALL           configura_comparadores  ; un comparador independiente
0008   20C6           00076                         CALL            configura_puertos
                      00077                         ;CALL           configura_convertidor
0009   20CD           00078                         CALL            configura_interrupciones
                      00079                         ;----------  PROGRAMA PRINCIPAL -  ---------------------------------------------
                            ----------------------------
                      00080 CIRC            BANCO0
000A   1283               M                         BCF     STATUS,RP0      
000B   1303               M                         BCF     STATUS,RP1
000C   3009           00081                         MOVLW           H'09'
000D   00A4           00082                         MOVWF           UNI
000E   208F           00083 CIRCULO CALL            desplegar_u_bcd
000F   20F4           00084                         CALL            medio_segundo
0010   30FF           00085                         MOVLW           H'FF'
0011   0086           00086                         MOVWF           PORTB
0012   1705           00087                         BSF             PORTA,6         
0013   20F4           00088                         CALL            medio_segundo
0014   0BA4           00089                         DECFSZ  UNI,1                   
0015   280E           00090                         GOTO            CIRCULO
0016   280A           00091                         GOTO            CIRC
                      00092 ;#######################################################################################################
                            #############
                      00093 ;{{{{{{{{{{{{{{{{{{{{{{{{{{{{{{{{{{{{{{{{{{{{{{{{{{{{{{{{{{{{{{{{{{{{{{{{{{{{{{{{{{  SUBRUTINA DE INTERR
                            UPCION }}}}}}}}}}}}}}}}}}}}}}}}}}}}}}}}}}}}}}}}}}}}}}}}}}}}}}}}}}}}}}}}}}}}}}}}}}}}}}}}}}}}}}}}}
0017                  00094 SP_INTERRUPT    ;MOVWF  W_TEMP          ;Copy W to TEMP register                                        
                                                    ;codigo propuesto por hoja de especificaciones
                      00095                                 ;SWAPF          STATUS,0                ;Swap status to be saved into W 
MPASM 03.60 Released                   INTERRUPCION_SP V2.ASM   8-3-2007  20:50:03         PAGE  3


LOC  OBJECT CODE     LINE SOURCE TEXT
  VALUE

                                                                            ;codigo propuesto por hoja de especificaciones
                      00096                                 ;CLRF           STATUS          ;bank 0, regardless of current bank, Cle
                            ars IRP,RP1,RP0 ;codigo propuesto por hoja de especificaciones
                      00097                                 ;MOVWF  STATUS_TEMP     ;Save status to bank zero STATUS_TEMP register  
                                            ;codigo propuesto por hoja de especificaciones
                      00098                                 ;MOVF           PCL,0           ;Only required if using page 1          
                                                                    ;codigo propuesto por hoja de especificaciones
                      00099                                 ;MOVWF  PCLATH_TEMP     ;Save PCLATH into W                             
                                                                    ;codigo propuesto por hoja de especificaciones
                      00100                                 ;CLRF           PCL                     ;Page zero, regardless of curren
                            t page                                  ;codigo propuesto por hoja de especificaciones
                      00101                                 ; ================================================
0017   3009           00102 INICIA_SP               MOVLW           H'09'
0018   00A4           00103                                 MOVWF           UNI
0019   00A5           00104                                 MOVWF           DECE
                      00105                                 
001A   208F           00106                                 CALL            desplegar_u_bcd
001B   2099           00107                                 CALL            desplegar_d_bcd
                      00108                                 ;-----------------------------------------------------------------------
                            -----------------------                         
001C   30FF           00109 OTRA_VEZ                MOVLW           H'FF'                                   ;(1)
001D   00BA           00110                                 MOVWF           CUENTA_SP1                      ;(1)
001E   30FF           00111                                 MOVLW           H'FF'                                   ;(1)
001F   00BB           00112                                 MOVWF           CUENTA_SP2                      ;(1)
0020   30FF           00113                                 MOVLW           H'FF'                                   ;(1)    ;carga u
                            n 22 decimal
0021   00BC           00114                                 MOVWF           CUENTA_SP3                      ;(1)
                      00115                                 ;MOVLW          H'01'                                   ;(1)    ;carga u
                            n 22 decimal
                      00116                                 ;MOVWF          CUENTA_SP4                      ;(1)
                      00117                                 
                      00118                                 
0022   1E05           00119 REVISA_U                BTFSS           PORTA,4                         ;(1)
0023   2826           00120                                 GOTO            REVISA_D                                ;(2)
0024   203D           00121                                 CALL            configura_unidades                      
0025   281C           00122                                 GOTO            OTRA_VEZ
0026   1F85           00123 REVISA_D                BTFSS           PORTA,7                         ;(1)
0027   282A           00124                                 GOTO            QUITA_TIEMPO                    ;(2)
0028   2047           00125                                 CALL            configura_decenas
0029   281C           00126                                 GOTO            OTRA_VEZ                
Message[305]: Using default destination of 1 (file).
002A   0BBA           00127 QUITA_TIEMPO    DECFSZ  CUENTA_SP1                      ;(1)
002B   2822           00128                                 GOTO            REVISA_U                                ;(2)
Message[305]: Using default destination of 1 (file).
002C   0BBB           00129                                 DECFSZ  CUENTA_SP2                      ;(1)
002D   2822           00130                                 GOTO            REVISA_U                                ;(2)
Message[305]: Using default destination of 1 (file).
002E   0BBC           00131                                 DECFSZ  CUENTA_SP3                      ;(1)
002F   2830           00132                                 GOTO            ACCION_out                              ;(2)
                      00133                                 ;DECFSZ CUENTA_SP4                      ;(1)
                      00134                                 ;GOTO           ACCION_out                              ;(2)
                      00135                                 ;-----------------------------------------------------------------------
                            -----------------------                         
MPASM 03.60 Released                   INTERRUPCION_SP V2.ASM   8-3-2007  20:50:03         PAGE  4


LOC  OBJECT CODE     LINE SOURCE TEXT
  VALUE

                      00136 
0030   3003           00137 ACCION_out              MOVLW           H'03'
0031   00BA           00138                                 MOVWF           CUENTA_SP1
0032   30FF           00139                                 MOVLW           H'FF'
0033   0086           00140                                 MOVWF           PORTB
0034   0085           00141                                 MOVWF           PORTA
0035   1705           00142                                 BSF             PORTA,6
0036   20F4           00143                                 CALL            medio_segundo
0037   208F           00144                                 CALL            desplegar_u_bcd
0038   2099           00145                                 CALL            desplegar_d_bcd
0039   0BBA           00146                                 DECFSZ  CUENTA_SP1,1
003A   2830           00147                                 GOTO            ACCION_out
                      00148                                 
                      00149                                 ;-------------------------------------------------------------------
003B                  00150 SIGUEPROG               
                      00151                                 
                      00152                                 ; ========== recuperacion de reg import =============
                      00153                                 ;MOVF           PCLATH_TEMP,0           ;Restore PCLATH                 
                                                    ;codigo propuesto por hoja de especificaciones
                      00154                                 ;MOVWF  PCL                                     ;Move W into PCLATH     
                                                            ;codigo propuesto por hoja de especificaciones
                      00155                                 ;SWAPF          STATUS_TEMP,0           ;Swap STATUS_TEMP register into 
                            W       ;codigo propuesto por hoja de especificaciones
                      00156                                                                                                         
                            ;(sets bank to original state)                                  ;codigo propuesto por hoja de es
                      00157                                 ;MOVWF  STATUS                          ;Move W into STATUS register    
                                            ;codigo propuesto por hoja de especificaciones
                      00158                                 ;SWAPF          W_TEMP,1                                ;Swap W_TEMP    
                                                                    ;codigo propuesto por hoja de especificaciones
                      00159                                 ;SWAPF          W_TEMP,0                                ;Swap W_TEMP int
                            o W                             ;codigo propuesto por hoja de especificaciones
                      00160                                 ;==============================================
003B   108B           00161                                 BCF             INTCON,1                                ;limpia bandera 
                            de interrupcion RB0                                             
003C   0009           00162                                 RETFIE                                                          ;regresa
                             de la interrupcion
                      00163 ;}}}}}}}}}}}}}}}}}}}}}}}}}}}}}}}}}}}}}}}}}}}}}}}}}}}}}}}}}}}}}}}}}}}}}}}}}} TERMINA SUBRUTINA DE INTERRU
                            PCION }}}}}}}}}}}}}}}}}}}}}}}}}}}}}}}}}}}}}}}}}}}}}}}}}}}}}}}}}}}}}}}}}}}}}}}}}}}}}}}}}}}}}}}}}}
                      00164 ;------------ subrutina que configura unidades -------------------------------------------
003D                  00165 configura_unidades              ;CALL           REBOTE
Message[305]: Using default destination of 1 (file).
003D   0BA4           00166                                                 DECFSZ  UNI
003E   2843           00167                                                 GOTO            SIGUE_U
003F   2840           00168                                                 GOTO            VUELVE_a9U
0040   208F           00169 VUELVE_a9U                      CALL            desplegar_u_bcd
0041   3009           00170                                                 MOVLW           H'09'
0042   00A4           00171                                                 MOVWF           UNI             
0043   208F           00172 SIGUE_U                         CALL            desplegar_u_bcd
0044   1A05           00173 AUN_SIGUE_U                     BTFSC           PORTA,4
0045   2844           00174                                                 GOTO            AUN_SIGUE_U
0046   0008           00175                                                 RETURN
                      00176 ;------------ subrutina que configura decenas --------------------------------------------------
0047                  00177 configura_decenas               ;CALL           REBOTE
MPASM 03.60 Released                   INTERRUPCION_SP V2.ASM   8-3-2007  20:50:03         PAGE  5


LOC  OBJECT CODE     LINE SOURCE TEXT
  VALUE

Message[305]: Using default destination of 1 (file).
0047   0BA5           00178                                                 DECFSZ  DECE
0048   284D           00179                                                 GOTO            SIGUE_D
0049   284A           00180                                                 GOTO            VUELVE_a9D
004A   2099           00181 VUELVE_a9D                      CALL            desplegar_d_bcd
004B   3009           00182                                                 MOVLW           H'09'
004C   00A5           00183                                                 MOVWF           DECE            
004D   2099           00184 SIGUE_D                         CALL            desplegar_d_bcd
004E   1A05           00185 AUN_SIGUE_D                     BTFSC           PORTA,4
004F   284E           00186                                                 GOTO            AUN_SIGUE_D
0050   0008           00187                                                 RETURN
                      00188 ;-------------------------------------------------------------------------------------------------------
                            -----------
                      00189 ;--------------- subrutina para convertir de BCD a BINARIO ----------------------------------------
                      00190 
                      00191 BCD_BINARIO     BANCO0
0051   1283               M                         BCF     STATUS,RP0      
0052   1303               M                         BCF     STATUS,RP1
0053   0825           00192                                 MOVF            DECE,0                          ; mueve el contenido de 
                            DECE al registro W
0054   00A8           00193                                 MOVWF           dece_comodin            ; mueve W al registro decenas co
                            modin                                   
0055   0DA8           00194                                 RLF             dece_comodin,1          ; rota a la izq. el registo dece
                            _comodin y el resultado ponlo ahi mismo
0056   0DA8           00195                                 RLF             dece_comodin,1          ; rota a la izq. el registo dece
                            _comodin y el resultado
0057   0828           00196                                 MOVF                    dece_comodin,0                  ; mueve dece_com
                            odin al registro W
0058   07A5           00197                                 ADDWF           DECE,1                          ; suma W+DECE, el result
                            ado almacenalo en DECE
0059   0D25           00198                                 RLF             DECE,0                          ; rota a la izq. el regi
                            sto, el resultado ponlo en W
005A   07A4           00199                                 ADDWF           UNI,1                           ; suma W+UNI, el resulta
                            do almacenalo en W
005B   00AC           00200                                 MOVWF           BINARIO                         ; mueve W al registro BI
                            NARIO
005C   0008           00201                                 RETURN                                          ; regresa de la Subrutin
                            a
                      00202 ;-------------------------------------------------------------------------------------------
                      00203 ;########################################## SUBRUTINA DE UN SEGUNDO DE TIEMPO ##########################
                            #########################################################################################
                      00204 ;############################   
                      00205 BIN2BCD_RS3     BANCO0
005D   1283               M                         BCF     STATUS,RP0      
005E   1303               M                         BCF     STATUS,RP1
005F   01B0           00206                                 CLRF            BCDH
0060   01B1           00207                                 CLRF            BCDL
                      00208 
0061   3008           00209                                 movlw           0x08
0062   00B3           00210                                 movwf           CUENTA
                      00211 
0063                  00212 CONVERSION1
0063   1003           00213                                 bcf                      STATUS,C
MPASM 03.60 Released                   INTERRUPCION_SP V2.ASM   8-3-2007  20:50:03         PAGE  6


LOC  OBJECT CODE     LINE SOURCE TEXT
  VALUE

0064   0DB4           00214                                 rlf                     BIN,f
0065   0DB1           00215                                 rlf                     BCDL,f
0066   0BB3           00216                                 decfsz                  CUENTA,f
0067   2869           00217                                 goto                    $+2
0068   2878           00218                                 goto                    FIN_CONV
0069   300F           00219                                 movlw           b'00001111'
006A   0531           00220                                 andwf                   BCDL,w
006B   00B2           00221                                 movwf           BCD_TEMP
006C   3005           00222                                 movlw           0x05
006D   0232           00223                                 subwf                   BCD_TEMP,w
006E   1803           00224                                 btfsc                   STATUS,C
006F   2079           00225                                 call                    sum3nib_bajo
0070   30F0           00226                                 movlw           b'11110000'
0071   0531           00227                                 andwf                   BCDL,w
0072   00B2           00228                                 movwf           BCD_TEMP
0073   3050           00229                                 movlw           0x50
0074   0232           00230                                 subwf                    BCD_TEMP,w
0075   1803           00231                                 btfsc                   STATUS,C
0076   207F           00232                                 call                    sum3nib_alto
0077   2863           00233                                 goto                    CONVERSION1
0078                  00234 FIN_CONV
0078   0008           00235                                 RETURN
                      00236                                 
                      00237                                 ;*******************************
                      00238                                 ;Subrutina que se encarga de
                      00239                                 ;sumar 3 al nibble bajo de BCDL
                      00240                                 ;*******************************
0079                  00241 sum3nib_bajo
0079   3003           00242                                 movlw           0x03
007A   07B1           00243                                 addwf           BCDL,f
007B   1C03           00244                                 btfss           STATUS,C
007C   0008           00245                                 return
007D   0DB0           00246                                 rlf                     BCDH,f
007E   0008           00247                                 RETURN
                      00248                                 
                      00249                                 ;*******************************
                      00250                                 ;Subrutina que se encarga de
                      00251                                 ;sumar 3 al nibble alto de BCDL
                      00252                                 ;*******************************
007F                  00253 sum3nib_alto
007F   3030           00254                                 movlw           0x30
0080   07B1           00255                                 addwf           BCDL,f
0081   1C03           00256                                 btfss           STATUS,C
0082   0008           00257                                 return
0083   0DB0           00258                                 rlf                     BCDH,f
0084   0008           00259                                 RETURN
                      00260 ;###################################################################
                      00261 ; movemos el registro BCDL al puerto B y el bit0 del registro BCDL al pin1 del puerto A
                      00262 
                      00263 desplegar_bin_bcd       BANCO0
0085   1283               M                         BCF     STATUS,RP0      
0086   1303               M                         BCF     STATUS,RP1
0087   0831           00264                                         MOVF            BCDL,0          ; mueve el reg BCDL al registro 
MPASM 03.60 Released                   INTERRUPCION_SP V2.ASM   8-3-2007  20:50:03         PAGE  7


LOC  OBJECT CODE     LINE SOURCE TEXT
  VALUE

                            W
0088   0086           00265                                         MOVWF           PORTB           ; mueve el registro W al PORTB
0089   1C31           00266                                         BTFSS           BCDL,0          ; salta si hay un '1' en el bit0
                             del registro BCDL
008A   288D           00267                                         GOTO            pon_cero        ; salta a etiqueta SIGUE
008B   1705           00268                                         BSF             PORTA,6 ; pon un '1' en el pin1 del PUERTO A
008C   288E           00269                                         GOTO            termina
008D   1305           00270 pon_cero                        BCF             PORTA,6 ; pon un '0' en el pin1 del puerto A            
                                                    
008E   0008           00271 termina                         RETURN                                  
                      00272 ;####################################################################
                      00273 ;###################################################################
                      00274 desplegar_u_bcd         BANCO0
008F   1283               M                         BCF     STATUS,RP0      
0090   1303               M                         BCF     STATUS,RP1
0091   0824           00275                                         MOVF            UNI,0           ; mueve el reg UNI al registro W
0092   0086           00276                                         MOVWF           PORTB           ; mueve el registro W al PORTB
0093   1C24           00277                                         BTFSS           UNI,0           ; salta si hay un '1' en el bit0
                             del registro UNI
0094   2897           00278                                         GOTO            pon_ceroU       ; salta a etiqueta SIGUE
0095   1705           00279                                         BSF             PORTA,6 ; pon un '1' en el pin1 del PUERTO A
0096   2898           00280                                         GOTO            terminaU
0097   1305           00281 pon_ceroU                       BCF             PORTA,6 ; pon un '0' en el pin1 del puerto A            
                                                    
0098   0008           00282 terminaU                                RETURN                                  
                      00283 ;###################################################################
                      00284 desplegar_d_bcd         BANCO0
0099   1283               M                         BCF     STATUS,RP0      
009A   1303               M                         BCF     STATUS,RP1
009B   0825           00285                                         MOVF            DECE,0                          ; mueve el reg D
                            ECE_com al registro W
009C   00B9           00286                                         MOVWF           DECE_com
                      00287 
009D   0DB9           00288                                         RLF             DECE_com,1
009E   0DB9           00289                                         RLF             DECE_com,1
009F   0DB9           00290                                         RLF             DECE_com,1
00A0   0DB9           00291                                         RLF             DECE_com,1
                      00292 
00A1   0839           00293                                         MOVF            DECE_com,0              ; mueve el reg DECE_com 
                            al registro W
                      00294                                         
00A2   0606           00295                                         XORWF           PORTB,0 ; xor el registro W con con el puerto B
00A3   0086           00296                                         MOVWF           PORTB           ; mueve el registro W al puerto 
                            B
00A4   1C25           00297                                         BTFSS           DECE,0          ; salta si hay un '1' en el bit0
                             del registro DECE
00A5   28A8           00298                                         GOTO            pon_ceroD       ; salta a etiqueta SIGUE
00A6   1705           00299                                         BSF             PORTA,6 ; pon un '1' en el pin1 del PUERTO A
00A7   28A9           00300                                         GOTO            terminaD
00A8   1305           00301 pon_ceroD                       BCF             PORTA,6 ; pon un '0' en el pin1 del puerto A            
                                                    
00A9   0008           00302 terminaD                        RETURN                                  
                      00303 ;####################################################################
MPASM 03.60 Released                   INTERRUPCION_SP V2.ASM   8-3-2007  20:50:03         PAGE  8


LOC  OBJECT CODE     LINE SOURCE TEXT
  VALUE

00AA   0185           00304 limpia_registros                                CLRF            PORTA                                   
                                            ; limpia puerto A
00AB   0186           00305                                                         CLRF            PORTB                           
                                                    ; limpia puerto B
                      00306                                                         ;***********************************************
                            *****************
00AC   01A4           00307                                                         CLRF            UNI                             
00AD   01A5           00308                                                         CLRF            DECE                    
00AE   01A6           00309                                                         CLRF            SP                              
00AF   01A7           00310                                                         CLRF            uni_comodin             
00B0   01A8           00311                                                         CLRF            dece_comodin    
00B1   01A9           00312                                                         CLRF            STATUS_TEMP     
00B2   01AA           00313                                                         CLRF            PCLATH_TEMP     
00B3   01AB           00314                                                         CLRF            W_TEMP          
                      00315                                                         ;***********************************************
                            ***
00B4   01AC           00316                                                         CLRF            BINARIO                 
00B5   01AD           00317                                                         CLRF            CONTADOR1       
00B6   01AE           00318                                                         CLRF            CONTADOR2       
00B7   01AF           00319                                                         CLRF            CONTADOR3       
                      00320                                                         ;********************** 
00B8   01B0           00321                                                         CLRF            BCDH                    
00B9   01B1           00322                                                         CLRF            BCDL                    
00BA   01B2           00323                                                         CLRF            BCD_TEMP                
00BB   01B3           00324                                                         CLRF            CUENTA          
00BC   01B4           00325                                                         CLRF            BIN                             
00BD   01B5           00326                                                         CLRF            BIN_comodin                     
                                                            
                      00327                                                         
00BE   01B7           00328                                                         CLRF            SEIS_CERO               
00BF   01B8           00329                                                         CLRF            NUEVE_NUEVE
00C0   0008           00330                                                         RETURN
                      00331 ;#######################################################################################################
                            ###################
                      00332 ;-------------------------------------------------------------------------------------------------------
                            ----------------------------------------------------------
                      00333 configura_oscilador                     BANCO1                                  ; selecciona Banco 1; Se
                             encuentran registros TRISA y TRISB
00C1   1683               M                         BSF     STATUS,RP0      
00C2   1303               M                         BCF     STATUS,RP1 
                      00334                                                                                                         
                                    ; al reset STATUS=00000000
                      00335                                                                                                         
                                    ; REGISTRO STATUS =     IRP             RP1             RP0             T0_             
                      00336                                                                                                         
                                    ;  RP1 RP0
                      00337                                                                                                         
                                    ;  0            0               banco 0
                      00338                                                                                                         
                                    ;  0            1               banco 1         RP0=1
                      00339                                                                                                         
                                    ;  1            0               banco 2
                      00340                                                                                                         
MPASM 03.60 Released                   INTERRUPCION_SP V2.ASM   8-3-2007  20:50:03         PAGE  9


LOC  OBJECT CODE     LINE SOURCE TEXT
  VALUE

                                    ;  1            1               banco 3
Message[302]: Register in operand not in bank 0.  Ensure that bank bits are correct.
00C3   170F           00341                                                         BSF             OSCCON,6                ;Pone el
                             oscilador a 4 MHz con el oscilador interno RC; OSCCON controla varios aspectos de operacion del
Message[302]: Register in operand not in bank 0.  Ensure that bank bits are correct.
00C4   168F           00342                                                         BSF             OSCCON,5                ;bit 6-4
                                            110             4 MHZ
                      00343                                                                                                         
                                    ;al reset inicia con 0's el registro.
00C5   0008           00344                                                         RETURN
                      00345 ;#######################################################################################################
                            ############################
                      00346 
                      00347 ;#######################################################################################################
                            ###########
                      00348 ;##### CONFIGURA LOS PUERTOS  A y B, (A0,A1,A2,A3 = ENTRADAS)  (A4,A5,A6,A7=SALIDAS),  (B0,B1,B2,B3 = EN
                            TRADAS)  (B4,B5,B6,B7=SALIDAS) ##################
                      00349 configura_puertos                               BANCO1
00C6   1683               M                         BSF     STATUS,RP0      
00C7   1303               M                         BCF     STATUS,RP1 
                      00350                                                         
00C8   30BF           00351                                                         MOVLW           B'10111111'                     
                                                    ; RA7   RA6             RA5             RA4             RA3             
Message[302]: Register in operand not in bank 0.  Ensure that bank bits are correct.
00C9   0085           00352                                                         MOVWF           TRISA                           
                                                    ;    1            0               1               1               1     
                      00353                                                                                                         
                                                                    ;Puerto A como salida           0 - salida;     1 - entr
00CA   3001           00354                                                         MOVLW           B'00000001'                     
                                                    ; RB7   RB6             RB5             RB4             RB3             
Message[302]: Register in operand not in bank 0.  Ensure that bank bits are correct.
00CB   0086           00355                                                         MOVWF           TRISB                           
                                                    ;    0            0               0               0               0     
                      00356                                                 
00CC   0008           00357                                                         RETURN
                      00358 ;#######################################################################################################
                            ##############                                                  
                      00359 ;##############################################################
                      00360 ;########################################### CONFIGURAR INTERRUPCIONES  ################################
                            #######################
                      00361 configura_interrupciones        BANCO1
00CD   1683               M                         BSF     STATUS,RP0      
00CE   1303               M                         BCF     STATUS,RP1 
                      00362                 
Message[302]: Register in operand not in bank 0.  Ensure that bank bits are correct.
00CF   1301           00363                                                 BCF             OPTION_REG,INTEDG                       
                                    ; activa por flanco de bajada, bit INTEDG
                      00364                                                 ;-----------------------------------------------------  
                            HABILITACION DE INTERRUPCIONES -----------------------------------------------------------------
00D0   160B           00365                                                 BSF             INTCON, INTE                            
                                                    ; que sea interrupcion externa por RB0, bit INTE bit 4
00D1   178B           00366                                                 BSF             INTCON, GIE                             
                                                    ; habilitamos interrupcion global GIE bit 7
MPASM 03.60 Released                   INTERRUPCION_SP V2.ASM   8-3-2007  20:50:03         PAGE 10


LOC  OBJECT CODE     LINE SOURCE TEXT
  VALUE

                      00367                                                         
00D2   0008           00368                                                 RETURN
                      00369 ;#######################################################################################################
                            ####################################
                      00370 configura_TMR0                  BANCO1
00D3   1683               M                         BSF     STATUS,RP0      
00D4   1303               M                         BCF     STATUS,RP1 
                      00371 
Message[302]: Register in operand not in bank 0.  Ensure that bank bits are correct.
00D5   1281           00372                                                 BCF             OPTION_REG,5                            
                                    ; 0 = Internal instruction cycle clock (CLKO)
Message[302]: Register in operand not in bank 0.  Ensure that bank bits are correct.
00D6   1181           00373                                                 BCF             OPTION_REG,3                            
                                    ; 0= pre scaler asignado al TMR0
Message[302]: Register in operand not in bank 0.  Ensure that bank bits are correct.
00D7   1501           00374                                                 BSF             OPTION_REG,2                            
                                    ; PS<2:0>: Prescaler Rate Select bits
Message[302]: Register in operand not in bank 0.  Ensure that bank bits are correct.
00D8   1481           00375                                                 BSF             OPTION_REG,1                            
                                    ; 111           1:256
Message[302]: Register in operand not in bank 0.  Ensure that bank bits are correct.
00D9   1401           00376                                                 BSF             OPTION_REG,0                            
                                    ; preescalador a 256
                      00377                                                 
00DA   110B           00378                                                 BCF             INTCON,2                                
                                            ; limpiar bandera 
00DB   0008           00379                                                 RETURN
                      00380 ;#######################################################################################################
                            ##############
                      00381 retraso_50msTMR0                BANCO0
00DC   1283               M                         BCF     STATUS,RP0      
00DD   1303               M                         BCF     STATUS,RP1
                      00382                                                 
00DE   303C           00383 PRECARGA                                MOVLW            H'3C'                  ; 50ms -->
00DF   0081           00384                                                 MOVWF           TMR0    
00E0   1D0B           00385 AGUANTA                         BTFSS           INTCON,T0IF
00E1   28E0           00386                                                 GOTO            AGUANTA
00E2   110B           00387                                                 BCF             INTCON,T0IF             ; limpiar bander
                            a 
00E3   0008           00388                                                 RETURN
                      00389                                                 
                      00390                                                                                                         
                            ;Cuando se carga un valor en el registro TMR0 (se escribe mediante una
                      00391                                                                                                         
                            ;instrucción), se produce un retardo de dos ciclos de instrucción durante los
                      00392                                                                                                         
                            ;cuales se inhibe tanto el prescaler como TMR0. Será necesario tener en cuenta
                      00393                                                                                                         
                            ;esa inhibición temporal a la hora de realizar una precarga (compensar sumando
                      00394                                                                                                         
                            ;los ciclos de instrucción que se pierden)
                      00395 ;#######################################################################################################
                            ################
MPASM 03.60 Released                   INTERRUPCION_SP V2.ASM   8-3-2007  20:50:03         PAGE 11


LOC  OBJECT CODE     LINE SOURCE TEXT
  VALUE

                      00396 t_adq_20micros                  BANCO0                                  ;selecciona banco 0
00E4   1283               M                         BCF     STATUS,RP0      
00E5   1303               M                         BCF     STATUS,RP1
00E6   3006           00397                                                 MOVLW           H'06'                   ; (1) ciclo de i
                            nstruccion
00E7   00B6           00398                                                 MOVWF           T_ADQ                   ; (1)
00E8   0BB6           00399 esp_t_adq                               DECFSZ  T_ADQ,1         ; (1)           el decremento lo pone en
                             el mismo registro
00E9   28E8           00400                                                 GOTO            esp_t_adq               ; (2)           
                                                    
00EA   0008           00401                                                 RETURN                                  ; (2)           
                            20-4=16;          (3 ciclos)x(6)=18,         en realidad serian como 22 microsegundos
                      00402 ;##########################################################################################
00EB   30FF           00403 REBOTE  MOVLW           H'FF'                    ;Carga el acumulador con 0FFh
00EC   00BE           00404                         MOVWF           REG_REBOTE1      ;Mueve el contenido del acumulador a RETARDO
00ED   3001           00405                         MOVLW           H'01'
00EE   00BF           00406                         MOVWF           REG_REBOTE2
00EF   0BBE           00407 REBO1           DECFSZ  REG_REBOTE1,1           ;\
00F0   28EF           00408                         GOTO            REBO1                   ; No retorna hasta que RETARDO llega a c
                            ero
00F1   0BBF           00409                         DECFSZ  REG_REBOTE2,1
00F2   28EB           00410                         GOTO            REBOTE
00F3   0008           00411                         RETURN                                                          ;/
                      00412 ;##################################################################
00F4   20DC           00413 medio_segundo   CALL            retraso_50msTMR0
00F5   20DC           00414                                 CALL            retraso_50msTMR0
00F6   20DC           00415                                 CALL            retraso_50msTMR0
00F7   20DC           00416                                 CALL            retraso_50msTMR0
00F8   20DC           00417                                 CALL            retraso_50msTMR0
00F9   20DC           00418                                 CALL            retraso_50msTMR0
00FA   20DC           00419                                 CALL            retraso_50msTMR0
00FB   20DC           00420                                 CALL            retraso_50msTMR0
00FC   20DC           00421                                 CALL            retraso_50msTMR0
00FD   20DC           00422                                 CALL            retraso_50msTMR0
00FE   0008           00423                                 RETURN
                      00424 ;################################ PARA QUE NO SE PIERDA AQUI ESTA EL FINAL DEL PROGRAMA ################
                            ################################################################################################
                      00425                                                 END
MPASM 03.60 Released                   INTERRUPCION_SP V2.ASM   8-3-2007  20:50:03         PAGE 12


SYMBOL TABLE
  LABEL                             VALUE 

ACCION_out                        00000030
ADCON0                            0000001F
ADCON1                            0000009F
ADCS0                             00000006
ADCS1                             00000007
ADCS2                             00000006
ADDEN                             00000003
ADFM                              00000007
ADIE                              00000006
ADIF                              00000006
ADON                              00000000
ADRESH                            0000001E
ADRESL                            0000009E
AGUANTA                           000000E0
ANSEL                             0000009B
AUN_SIGUE_D                       0000004E
AUN_SIGUE_U                       00000044
BANCO0                            
BANCO1                            
BANCO2                            
BANCO3                            
BCDH                              00000030
BCDL                              00000031
BCD_BINARIO                       00000051
BCD_TEMP                          00000032
BF                                00000000
BIN                               00000034
BIN2BCD_RS3                       0000005D
BINARIO                           0000002C
BIN_comodin                       00000035
BRGH                              00000002
C                                 00000000
C1INV                             00000004
C1OUT                             00000006
C2INV                             00000005
C2OUT                             00000007
CCP1CON                           00000017
CCP1IE                            00000002
CCP1IF                            00000002
CCP1M0                            00000000
CCP1M1                            00000001
CCP1M2                            00000002
CCP1M3                            00000003
CCP1X                             00000005
CCP1Y                             00000004
CCPR1H                            00000016
CCPR1L                            00000015
CHS0                              00000003
CHS1                              00000004
CHS2                              00000005
CIRC                              0000000A
CIRCULO                           0000000E
CIS                               00000003
MPASM 03.60 Released                   INTERRUPCION_SP V2.ASM   8-3-2007  20:50:03         PAGE 13


SYMBOL TABLE
  LABEL                             VALUE 

CKE                               00000006
CKP                               00000004
CM0                               00000000
CM1                               00000001
CM2                               00000002
CMCON                             0000009C
CMIE                              00000006
CMIF                              00000006
CONTADOR1                         0000002D
CONTADOR2                         0000002E
CONTADOR3                         0000002F
CONVERSION1                       00000063
CREN                              00000004
CSRC                              00000007
CUENTA                            00000033
CUENTA_SP1                        0000003A
CUENTA_SP2                        0000003B
CUENTA_SP3                        0000003C
CUENTA_SP4                        0000003D
CVR0                              00000000
CVR1                              00000001
CVR2                              00000002
CVR3                              00000003
CVRCON                            0000009D
CVREN                             00000007
CVROE                             00000006
CVRR                              00000005
D                                 00000005
DATA_ADDRESS                      00000005
DC                                00000001
DECE                              00000025
DECE_com                          00000039
D_A                               00000005
EEADR                             0000010D
EEADRH                            0000010F
EECON1                            0000018C
EECON2                            0000018D
EEDATA                            0000010C
EEDATH                            0000010E
EEIE                              00000004
EEIF                              00000004
EEPGD                             00000007
F                                 00000001
FERR                              00000002
FIN_CONV                          00000078
FREE                              00000004
FSR                               00000004
GIE                               00000007
GO                                00000002
GO_DONE                           00000002
I2C_DATA                          00000005
I2C_READ                          00000002
I2C_START                         00000003
MPASM 03.60 Released                   INTERRUPCION_SP V2.ASM   8-3-2007  20:50:03         PAGE 14


SYMBOL TABLE
  LABEL                             VALUE 

I2C_STOP                          00000004
INDF                              00000000
INICIA_SP                         00000017
INICIO                            00000005
INTCON                            0000000B
INTE                              00000004
INTEDG                            00000006
INTF                              00000001
IOFS                              00000002
IRCF0                             00000004
IRCF1                             00000005
IRCF2                             00000006
IRP                               00000007
NOT_A                             00000005
NOT_ADDRESS                       00000005
NOT_BO                            00000000
NOT_BOR                           00000000
NOT_DONE                          00000002
NOT_PD                            00000003
NOT_POR                           00000001
NOT_RBPU                          00000007
NOT_RC8                           00000006
NOT_T1SYNC                        00000002
NOT_TO                            00000004
NOT_TX8                           00000006
NOT_W                             00000002
NOT_WRITE                         00000002
NUEVE_NUEVE                       00000038
OERR                              00000001
OPTION_REG                        00000081
OSCCON                            0000008F
OSCTUNE                           00000090
OSFIE                             00000007
OSFIF                             00000007
OSTS                              00000003
OTRA_VEZ                          0000001C
P                                 00000004
PCL                               00000002
PCLATH                            0000000A
PCLATH_TEMP                       0000002A
PCON                              0000008E
PEIE                              00000006
PIE1                              0000008C
PIE2                              0000008D
PIR1                              0000000C
PIR2                              0000000D
PORTA                             00000005
PORTB                             00000006
PR2                               00000092
PRECARGA                          000000DE
PS0                               00000000
PS1                               00000001
PS2                               00000002
MPASM 03.60 Released                   INTERRUPCION_SP V2.ASM   8-3-2007  20:50:03         PAGE 15


SYMBOL TABLE
  LABEL                             VALUE 

PSA                               00000003
QUITA_TIEMPO                      0000002A
R                                 00000002
RBIE                              00000003
RBIF                              00000000
RC8_9                             00000006
RC9                               00000006
RCD8                              00000000
RCIE                              00000005
RCIF                              00000005
RCREG                             0000001A
RCSTA                             00000018
RD                                00000000
READ_WRITE                        00000002
REBO1                             000000EF
REBOTE                            000000EB
REG_REBOTE1                       0000003E
REG_REBOTE2                       0000003F
REVISA_D                          00000026
REVISA_U                          00000022
RP0                               00000005
RP1                               00000006
RX9                               00000006
RX9D                              00000000
R_W                               00000002
S                                 00000003
SCS0                              00000000
SCS1                              00000001
SEIS_CERO                         00000037
SIGUEPROG                         0000003B
SIGUE_D                           0000004D
SIGUE_U                           00000043
SMP                               00000007
SP                                00000026
SPBRG                             00000099
SPEN                              00000007
SP_INTERRUPT                      00000017
SREN                              00000005
SSPADD                            00000093
SSPBUF                            00000013
SSPCON                            00000014
SSPEN                             00000005
SSPIE                             00000003
SSPIF                             00000003
SSPM0                             00000000
SSPM1                             00000001
SSPM2                             00000002
SSPM3                             00000003
SSPOV                             00000006
SSPSTAT                           00000094
STATUS                            00000003
STATUS_TEMP                       00000029
SWDTE                             00000000
MPASM 03.60 Released                   INTERRUPCION_SP V2.ASM   8-3-2007  20:50:03         PAGE 16


SYMBOL TABLE
  LABEL                             VALUE 

SWDTEN                            00000000
SYNC                              00000004
T0CS                              00000005
T0IE                              00000005
T0IF                              00000002
T0SE                              00000004
T1CKPS0                           00000004
T1CKPS1                           00000005
T1CON                             00000010
T1INSYNC                          00000002
T1OSCEN                           00000003
T1RUN                             00000006
T2CKPS0                           00000000
T2CKPS1                           00000001
T2CON                             00000012
TMR0                              00000001
TMR0IE                            00000005
TMR0IF                            00000002
TMR1CS                            00000001
TMR1H                             0000000F
TMR1IE                            00000000
TMR1IF                            00000000
TMR1L                             0000000E
TMR1ON                            00000000
TMR2                              00000011
TMR2IE                            00000001
TMR2IF                            00000001
TMR2ON                            00000002
TOUTPS0                           00000003
TOUTPS1                           00000004
TOUTPS2                           00000005
TOUTPS3                           00000006
TRISA                             00000085
TRISB                             00000086
TRMT                              00000001
TUN0                              00000000
TUN1                              00000001
TUN2                              00000002
TUN3                              00000003
TUN4                              00000004
TUN5                              00000005
TX8_9                             00000006
TX9                               00000006
TX9D                              00000000
TXD8                              00000000
TXEN                              00000005
TXIE                              00000004
TXIF                              00000004
TXREG                             00000019
TXSTA                             00000098
T_ADQ                             00000036
UA                                00000001
UNI                               00000024
MPASM 03.60 Released                   INTERRUPCION_SP V2.ASM   8-3-2007  20:50:03         PAGE 17


SYMBOL TABLE
  LABEL                             VALUE 

VCFG0                             00000004
VCFG1                             00000005
VUELVE_a9D                        0000004A
VUELVE_a9U                        00000040
W                                 00000000
WCOL                              00000007
WDTCON                            00000105
WDTPS0                            00000001
WDTPS1                            00000002
WDTPS2                            00000003
WDTPS3                            00000004
WR                                00000001
WREN                              00000002
WRERR                             00000003
W_TEMP                            0000002B
Z                                 00000002
_BODEN_OFF                        00003FBF
_BODEN_ON                         00003FFF
_CCP1_RB0                         00003FFF
_CCP1_RB3                         00002FFF
_CONFIG1                          00002007
_CONFIG2                          00002008
_CPD_OFF                          00003FFF
_CPD_ON                           00003EFF
_CP_ALL                           00001FFF
_CP_OFF                           00003FFF
_DEBUG_OFF                        00003FFF
_DEBUG_ON                         000037FF
_EXTCLK                           00003FEF
_EXTRC_CLKOUT                     00003FFF
_EXTRC_IO                         00003FFE
_FCMEN_OFF                        00003FFE
_FCMEN_ON                         00003FFF
_HS_OSC                           00003FEE
_IESO_OFF                         00003FFD
_IESO_ON                          00003FFF
_INTRC_CLKOUT                     00003FFD
_INTRC_IO                         00003FFC
_LP_OSC                           00003FEC
_LVP_OFF                          00003F7F
_LVP_ON                           00003FFF
_MCLR_OFF                         00003FDF
_MCLR_ON                          00003FFF
_PWRTE_OFF                        00003FFF
_PWRTE_ON                         00003FF7
_WDT_OFF                          00003FFB
_WDT_ON                           00003FFF
_WRT_ENABLE_1024                  00003BFF
_WRT_ENABLE_512                   00003DFF
_WRT_ENABLE_OFF                   00003FFF
_XT_OSC                           00003FED
__16F88                           00000001
configura_TMR0                    000000D3
MPASM 03.60 Released                   INTERRUPCION_SP V2.ASM   8-3-2007  20:50:03         PAGE 18


SYMBOL TABLE
  LABEL                             VALUE 

configura_decenas                 00000047
configura_interrupciones          000000CD
configura_oscilador               000000C1
configura_puertos                 000000C6
configura_unidades                0000003D
dece_comodin                      00000028
desplegar_bin_bcd                 00000085
desplegar_d_bcd                   00000099
desplegar_u_bcd                   0000008F
esp_t_adq                         000000E8
limpia_registros                  000000AA
medio_segundo                     000000F4
pon_cero                          0000008D
pon_ceroD                         000000A8
pon_ceroU                         00000097
retraso_50msTMR0                  000000DC
sum3nib_alto                      0000007F
sum3nib_bajo                      00000079
t_adq_20micros                    000000E4
termina                           0000008E
terminaD                          000000A9
terminaU                          00000098
uni_comodin                       00000027


MEMORY USAGE MAP ('X' = Used,  '-' = Unused)

0000 : X---XXXXXXXXXXXX XXXXXXXXXXXXXXXX XXXXXXXXXXXXXXXX XXXXXXXXXXXXXXXX
0040 : XXXXXXXXXXXXXXXX XXXXXXXXXXXXXXXX XXXXXXXXXXXXXXXX XXXXXXXXXXXXXXXX
0080 : XXXXXXXXXXXXXXXX XXXXXXXXXXXXXXXX XXXXXXXXXXXXXXXX XXXXXXXXXXXXXXXX
00C0 : XXXXXXXXXXXXXXXX XXXXXXXXXXXXXXXX XXXXXXXXXXXXXXXX XXXXXXXXXXXXXXX-

All other memory blocks unused.

Program Memory Words Used:   252
Program Memory Words Free:  3844


Errors   :     0
Warnings :     0 reported,     0 suppressed
Messages :    15 reported,     0 suppressed

