MPASM 03.60 Released                   INTERRUPCION_SP V5.ASM   8-6-2007  19:29:40         PAGE  1


LOC  OBJECT CODE     LINE SOURCE TEXT
  VALUE

                      00001 ;***************************************************************
                      00002                                 list    p=16F88
                      00003                                 #include        <p16F88.inc>
                      00001         LIST
                      00002 ; P16F88.INC  Standard Header File, Version 1.00    Microchip Technology, Inc.
                      00401         LIST
                      00004 ;***************************************************************
                      00005 BANCO0          MACRO
                      00006                         BCF     STATUS,RP0      
                      00007                         BCF     STATUS,RP1
                      00008                         ENDM
                      00009 BANCO1          MACRO
                      00010                         BSF     STATUS,RP0      
                      00011                         BCF     STATUS,RP1 
                      00012                         ENDM
                      00013 BANCO2          MACRO
                      00014                         BCF     STATUS,RP0      
                      00015                         BSF     STATUS,RP1 
                      00016                         ENDM
                      00017 BANCO3          MACRO
                      00018                         BSF     STATUS,RP0      
                      00019                         BSF     STATUS,RP1 
                      00020                         ENDM
                      00021 ;****************************************************************
                      00022 
  00000024            00023 UNI                             equ     24h
  00000025            00024 DECE                    equ     25h
  00000026            00025 SP                              equ     26h
  00000027            00026 uni_comodin             equ     27h
  00000028            00027 dece_comodin    equ     28h
  00000029            00028 STATUS_TEMP     equ 29h
  0000002A            00029 PCLATH_TEMP     equ 2Ah
  0000002B            00030 W_TEMP          equ     2Bh
                      00031 ;**************************************************
  0000002C            00032 BINARIO                 equ     2Ch
  0000002D            00033 CONTADOR1       equ 2Dh
  0000002E            00034 CONTADOR2       equ 2Eh
  0000002F            00035 CONTADOR3       equ 2Fh
                      00036 ;********************** 
  00000030            00037 BCDH                    equ 30h
  00000031            00038 BCDL                    equ 31h
  00000032            00039 BCD_TEMP                equ 32h
  00000033            00040 CUENTA          equ 33h
  00000034            00041 BIN                             equ 34h
  00000035            00042 BIN_comodin             equ 35h
  00000036            00043 T_ADQ                   equ 36h
                      00044 ;*************************************************
  00000037            00045 SEIS_CERO               equ     37h
  00000038            00046 NUEVE_NUEVE     equ  38h
                      00047 
                      00048 ;***************************************************************
  00000039            00049 DECE_com                equ     39h
  0000003A            00050 CUENTA_SP1      equ 3Ah
MPASM 03.60 Released                   INTERRUPCION_SP V5.ASM   8-6-2007  19:29:40         PAGE  2


LOC  OBJECT CODE     LINE SOURCE TEXT
  VALUE

  0000003B            00051 CUENTA_SP2      equ 3Bh
  0000003C            00052 CUENTA_SP3      equ 3Ch
  0000003D            00053 CUENTA_SP4      equ 3Dh
  0000003E            00054 REG_REBOTE1     equ 3Eh
  0000003F            00055 REG_REBOTE2     equ     3Fh
  00000040            00056 DURACION_PULSO          equ     40
  00000041            00057 CONTADOR_D_PULS equ 41
                      00058 ;____________________________________________
                      00059 
                      00060 ; RECORDATORIO DE EN DONDE SE ENCUENGRAN ALGUNOS REGISTROS 
                      00061 ;       ADRESH  1Eh             banco 0
                      00062 ;       ADRESL  9Eh             banco 1
                      00063 ;       ANSEL           9Bh             banco 1
                      00064 ;       ADCON0  1Fh             banco 0
                      00065 ;       ADCON1  9Fh             banco 1
                      00066 ;****************************************************************
                      00067 ;#######################################################################################################
                            ############################
0000                  00068                                                         ORG             0x0000
0000   2805           00069                                                         GOTO            INICIO
0004                  00070                                                         ORG             0x04
0004   282A           00071                                                         GOTO            SP_INTERRUPT
0005                  00072                                                         ORG             0x05
                      00073 ;#######################################################################################################
                            ############################
0005   208B           00074 INICIO          CALL            limpia_registros
0006   20A2           00075                         CALL            configura_oscilador
0007   20B4           00076                         CALL            configura_TMR0
                      00077                         ;CALL           configura_comparadores  ; un comparador independiente
0008   20A7           00078                         CALL            configura_puertos
                      00079                         ;CALL           configura_convertidor
0009   20AE           00080                         CALL            configura_interrupciones
                      00081                         ;----------  PROGRAMA PRINCIPAL -  ---------------------------------------------
                            ----------------------------
                      00082                                         BANCO0
000A   1283               M                         BCF     STATUS,RP0      
000B   1303               M                         BCF     STATUS,RP1
000C   307C           00083                                         MOVLW            H'7C'                          ; inicializa el 
                            TMR= para  8.333 [ms] --> (1/60)/2
000D   00C0           00084                                         MOVWF           DURACION_PULSO  ; mueve el valo a registro DURAC
                            ION_PULSO                                               
                      00085                                         
000E   30FF           00086                                         MOVLW           H'FF'                                   ; (1)
000F   00AD           00087                                         MOVWF           CONTADOR1                       ; (1 )  mueve 25
                            5 a registro CONTADOR1
0010   0840           00088                                         MOVF            DURACION_PULSO,0                ; (1) mueve     
                            DURACION_PULSO a W      
0011   02AD           00089                                         SUBWF           CONTADOR1,1                     ; (1) resta (CON
                            TADOR1 - DURACION_PULSO) -->  CONTADOR1 ejemplo (255-124=131), 
0012   3001           00090                                         MOVLW           H'01'                                   ; le sum
                            a un uno
0013   07AD           00091                                         ADDWF           CONTADOR1,1                     ; SE HACE EL CAL
                            CULO DEL NUMERO DE CUENTAS HASTA FF de TMR0     
MPASM 03.60 Released                   INTERRUPCION_SP V5.ASM   8-6-2007  19:29:40         PAGE  3


LOC  OBJECT CODE     LINE SOURCE TEXT
  VALUE

                      00092                                                                                                         
                                    ; Y SE ALMACENA EN CONTADOR1, PARA HACERLO EXACTO
0014   082D           00093                                         MOVF            CONTADOR1,0
0015   00AF           00094                                         MOVWF           CONTADOR3                       ; CONSTANTE     
                                                            
                      00095 
                      00096                                         BANCO0
0016   1283               M                         BCF     STATUS,RP0      
0017   1303               M                         BCF     STATUS,RP1
0018   1A05           00097 REVISA_PULSO            BTFSC           PORTA,4                         ; monitorea el pulso de cruce po
                            r cero
0019   2818           00098                                         GOTO            REVISA_PULSO                    ; monitorea el p
                            ulso de cruce por cero
001A   1785           00099                                         BSF             PORTA,7                         ; envia pulso al
                             puerto PA0
001B   20DE           00100                                         CALL            RETARDO_VARIABLE        ; 
001C   2818           00101                                         GOTO            REVISA_PULSO
                      00102                         ;-------------------------------------------------------------------------------
                            -----------------------------------------------------
                      00103 CIRC            BANCO0
001D   1283               M                         BCF     STATUS,RP0      
001E   1303               M                         BCF     STATUS,RP1
001F   3009           00104                         MOVLW           H'09'
0020   00A4           00105                         MOVWF           UNI
0021   2070           00106 CIRCULO CALL            desplegar_u_bcd
0022   20D3           00107                         CALL            medio_segundo
0023   30FF           00108                         MOVLW           H'FF'
0024   0086           00109                         MOVWF           PORTB
0025   1705           00110                         BSF             PORTA,6         
0026   20D3           00111                         CALL            medio_segundo
0027   0BA4           00112                         DECFSZ  UNI,1                   
0028   2821           00113                         GOTO            CIRCULO
0029   281D           00114                         GOTO            CIRC
                      00115                         ;-------------------------------------------------------------------------------
                            -------------------------------------------------------------
                      00116 ;#######################################################################################################
                            #############
                      00117 ;{{{{{{{{{{{{{{{{{{{{{{{{{{{{{{{{{{{{{{{{{{{{{{{{{{{{{{{{{{{{{{{{{{{{{{{{{{{{{{{{{{  SUBRUTINA DE INTERR
                            UPCION }}}}}}}}}}}}}}}}}}}}}}}}}}}}}}}}}}}}}}}}}}}}}}}}}}}}}}}}}}}}}}}}}}}}}}}}}}}}}}}}}}}}}}}}}
002A                  00118 SP_INTERRUPT    ;MOVWF  W_TEMP          ;Copy W to TEMP register                                        
                                                    ;codigo propuesto por hoja de especificaciones
                      00119                                 ;SWAPF          STATUS,0                ;Swap status to be saved into W 
                                                                            ;codigo propuesto por hoja de especificaciones
                      00120                                 ;CLRF           STATUS          ;bank 0, regardless of current bank, Cle
                            ars IRP,RP1,RP0 ;codigo propuesto por hoja de especificaciones
                      00121                                 ;MOVWF  STATUS_TEMP     ;Save status to bank zero STATUS_TEMP register  
                                            ;codigo propuesto por hoja de especificaciones
                      00122                                 ;MOVF           PCL,0           ;Only required if using page 1          
                                                                    ;codigo propuesto por hoja de especificaciones
                      00123                                 ;MOVWF  PCLATH_TEMP     ;Save PCLATH into W                             
                                                                    ;codigo propuesto por hoja de especificaciones
                      00124                                 ;CLRF           PCL                     ;Page zero, regardless of curren
                            t page                                  ;codigo propuesto por hoja de especificaciones
MPASM 03.60 Released                   INTERRUPCION_SP V5.ASM   8-6-2007  19:29:40         PAGE  4


LOC  OBJECT CODE     LINE SOURCE TEXT
  VALUE

                      00125                                 ; ================================================
002A   3009           00126 INICIA_SP               MOVLW           H'09'
002B   00A4           00127                                 MOVWF           UNI
002C   00A5           00128                                 MOVWF           DECE
                      00129                                 
002D   2070           00130                                 CALL            desplegar_u_bcd
002E   207A           00131                                 CALL            desplegar_d_bcd
                      00132                                 ;-----------------------------------------------------------------------
                            -----------------------                         
002F   30FF           00133 OTRA_VEZ                MOVLW           H'FF'                                           ;(1)
0030   00BA           00134                                 MOVWF           CUENTA_SP1                              ;(1)
0031   30FF           00135                                 MOVLW           H'FF'                                           ;(1)
0032   00BB           00136                                 MOVWF           CUENTA_SP2                              ;(1)
0033   3009           00137                                 MOVLW           H'09'                                           ;(1)    
                            ;carga un  decimal
0034   00BC           00138                                 MOVWF           CUENTA_SP3                              ;(1)
                      00139                                 ;MOVLW          H'01'                                   ;(1)    ;carga u
                            n  decimal
                      00140                                 ;MOVWF          CUENTA_SP4                      ;(1)
                      00141                                 
                      00142                                 
0035   1C85           00143 REVISA_U                BTFSS           PORTA,1                         ;(1)
0036   2839           00144                                 GOTO            REVISA_D                                ;(2)
0037   2052           00145                                 CALL            configura_unidades                      
0038   282F           00146                                 GOTO            OTRA_VEZ
0039   1E85           00147 REVISA_D                BTFSS           PORTA,5                         ;(1)
003A   283D           00148                                 GOTO            QUITA_TIEMPO                    ;(2)
003B   205C           00149                                 CALL            configura_decenas
003C   282F           00150                                 GOTO            OTRA_VEZ                
003D   0BBA           00151 QUITA_TIEMPO    DECFSZ  CUENTA_SP1,1                    ;(1)
003E   2835           00152                                 GOTO            REVISA_U                                ;(2)
                      00153 
003F   0BBB           00154                                 DECFSZ  CUENTA_SP2,1                    ;(1)
0040   2835           00155                                 GOTO            REVISA_U                                ;(2)
                      00156 
0041   0BBC           00157                                 DECFSZ  CUENTA_SP3,1                    ;(1)
0042   2843           00158                                 GOTO            ACCION_out                              ;(2)
                      00159 
                      00160                                 ;DECFSZ CUENTA_SP4,1                    ;(1)
                      00161                                 ;GOTO           ACCION_out                              ;(2)
                      00162                                 ;-----------------------------------------------------------------------
                            -----------------------                         
                      00163 
0043                  00164 ACCION_out              
                      00165                                 BANCO0
0043   1283               M                         BCF     STATUS,RP0      
0044   1303               M                         BCF     STATUS,RP1
                      00166                                 
0045   3003           00167                                 MOVLW           H'03'
0046   00BA           00168                                 MOVWF           CUENTA_SP1
0047   2070           00169 CIRCULOSP               CALL            desplegar_u_bcd
0048   207A           00170                                 CALL            desplegar_d_bcd
0049   20D3           00171                                 CALL            medio_segundo
MPASM 03.60 Released                   INTERRUPCION_SP V5.ASM   8-6-2007  19:29:40         PAGE  5


LOC  OBJECT CODE     LINE SOURCE TEXT
  VALUE

004A   30FF           00172                                 MOVLW           H'FF'
004B   0086           00173                                 MOVWF           PORTB
004C   1705           00174                                 BSF             PORTA,6         
004D   20D3           00175                                 CALL            medio_segundo
004E   0BBA           00176                                 DECFSZ  CUENTA_SP1,1                    
004F   2847           00177                                 GOTO            CIRCULOSP
                      00178                                 
                      00179                                 
                      00180                                 ;-------------------------------------------------------------------
0050                  00181 SIGUEPROG               
                      00182                                 
                      00183                                 ; ========== recuperacion de reg import =============
                      00184                                 ;MOVF           PCLATH_TEMP,0           ;Restore PCLATH                 
                                                    ;codigo propuesto por hoja de especificaciones
                      00185                                 ;MOVWF  PCL                                     ;Move W into PCLATH     
                                                            ;codigo propuesto por hoja de especificaciones
                      00186                                 ;SWAPF          STATUS_TEMP,0           ;Swap STATUS_TEMP register into 
                            W       ;codigo propuesto por hoja de especificaciones
                      00187                                                                                                         
                            ;(sets bank to original state)                                  ;codigo propuesto por hoja de es
                      00188                                 ;MOVWF  STATUS                          ;Move W into STATUS register    
                                            ;codigo propuesto por hoja de especificaciones
                      00189                                 ;SWAPF          W_TEMP,1                                ;Swap W_TEMP    
                                                                    ;codigo propuesto por hoja de especificaciones
                      00190                                 ;SWAPF          W_TEMP,0                                ;Swap W_TEMP int
                            o W                             ;codigo propuesto por hoja de especificaciones
                      00191                                 ;==============================================
0050   108B           00192                                 BCF             INTCON,1                                ;limpia bandera 
                            de interrupcion RB0                                             
0051   0009           00193                                 RETFIE                                                          ;regresa
                             de la interrupcion
                      00194 ;}}}}}}}}}}}}}}}}}}}}}}}}}}}}}}}}}}}}}}}}}}}}}}}}}}}}}}}}}}}}}}}}}}}}}}}}}} TERMINA SUBRUTINA DE INTERRU
                            PCION }}}}}}}}}}}}}}}}}}}}}}}}}}}}}}}}}}}}}}}}}}}}}}}}}}}}}}}}}}}}}}}}}}}}}}}}}}}}}}}}}}}}}}}}}}
                      00195 ;------------ subrutina que configura unidades -------------------------------------------
0052                  00196 configura_unidades              ;CALL           REBOTE
Message[305]: Using default destination of 1 (file).
0052   0BA4           00197                                                 DECFSZ  UNI
0053   2858           00198                                                 GOTO            SIGUE_U
0054   2855           00199                                                 GOTO            VUELVE_a9U
0055   2070           00200 VUELVE_a9U                      CALL            desplegar_u_bcd
0056   3009           00201                                                 MOVLW           H'09'
0057   00A4           00202                                                 MOVWF           UNI             
0058   2070           00203 SIGUE_U                         CALL            desplegar_u_bcd
0059   1A05           00204 AUN_SIGUE_U                     BTFSC           PORTA,4
005A   2859           00205                                                 GOTO            AUN_SIGUE_U
005B   0008           00206                                                 RETURN
                      00207 ;------------ subrutina que configura decenas --------------------------------------------------
005C                  00208 configura_decenas               ;CALL           REBOTE
Message[305]: Using default destination of 1 (file).
005C   0BA5           00209                                                 DECFSZ  DECE
005D   2862           00210                                                 GOTO            SIGUE_D
005E   285F           00211                                                 GOTO            VUELVE_a9D
005F   207A           00212 VUELVE_a9D                      CALL            desplegar_d_bcd
MPASM 03.60 Released                   INTERRUPCION_SP V5.ASM   8-6-2007  19:29:40         PAGE  6


LOC  OBJECT CODE     LINE SOURCE TEXT
  VALUE

0060   3009           00213                                                 MOVLW           H'09'
0061   00A5           00214                                                 MOVWF           DECE            
0062   207A           00215 SIGUE_D                         CALL            desplegar_d_bcd
0063   1A05           00216 AUN_SIGUE_D                     BTFSC           PORTA,4
0064   2863           00217                                                 GOTO            AUN_SIGUE_D
0065   0008           00218                                                 RETURN
                      00219 ;-------------------------------------------------------------------------------------------------------
                            -----------
                      00220 ;###################################################################
                      00221 ; movemos el registro BCDL al puerto B y el bit0 del registro BCDL al pin1 del puerto A
                      00222 
                      00223 desplegar_bin_bcd       BANCO0
0066   1283               M                         BCF     STATUS,RP0      
0067   1303               M                         BCF     STATUS,RP1
0068   0831           00224                                         MOVF            BCDL,0          ; mueve el reg BCDL al registro 
                            W
0069   0086           00225                                         MOVWF           PORTB           ; mueve el registro W al PORTB
006A   1C31           00226                                         BTFSS           BCDL,0          ; salta si hay un '1' en el bit0
                             del registro BCDL
006B   286E           00227                                         GOTO            pon_cero        ; salta a etiqueta SIGUE
006C   1705           00228                                         BSF             PORTA,6 ; pon un '1' en el pin1 del PUERTO A
006D   286F           00229                                         GOTO            termina
006E   1305           00230 pon_cero                        BCF             PORTA,6 ; pon un '0' en el pin1 del puerto A            
                                                    
006F   0008           00231 termina                         RETURN                                  
                      00232 ;####################################################################
                      00233 ;###################################################################
                      00234 desplegar_u_bcd         BANCO0
0070   1283               M                         BCF     STATUS,RP0      
0071   1303               M                         BCF     STATUS,RP1
0072   0824           00235                                         MOVF            UNI,0           ; mueve el reg UNI al registro W
0073   0086           00236                                         MOVWF           PORTB           ; mueve el registro W al PORTB
0074   1C24           00237                                         BTFSS           UNI,0           ; salta si hay un '1' en el bit0
                             del registro UNI
0075   2878           00238                                         GOTO            pon_ceroU       ; salta a etiqueta SIGUE
0076   1705           00239                                         BSF             PORTA,6 ; pon un '1' en el pin1 del PUERTO A
0077   2879           00240                                         GOTO            terminaU
0078   1305           00241 pon_ceroU                       BCF             PORTA,6 ; pon un '0' en el pin1 del puerto A            
                                                    
0079   0008           00242 terminaU                                RETURN                                  
                      00243 ;###################################################################
                      00244 desplegar_d_bcd         BANCO0
007A   1283               M                         BCF     STATUS,RP0      
007B   1303               M                         BCF     STATUS,RP1
007C   0825           00245                                         MOVF            DECE,0                          ; mueve el reg D
                            ECE_com al registro W
007D   00B9           00246                                         MOVWF           DECE_com
                      00247 
007E   0DB9           00248                                         RLF             DECE_com,1
007F   0DB9           00249                                         RLF             DECE_com,1
0080   0DB9           00250                                         RLF             DECE_com,1
0081   0DB9           00251                                         RLF             DECE_com,1
                      00252 
MPASM 03.60 Released                   INTERRUPCION_SP V5.ASM   8-6-2007  19:29:40         PAGE  7


LOC  OBJECT CODE     LINE SOURCE TEXT
  VALUE

0082   0839           00253                                         MOVF            DECE_com,0              ; mueve el reg DECE_com 
                            al registro W
                      00254                                         
0083   0606           00255                                         XORWF           PORTB,0 ; xor el registro W con con el puerto B
0084   0086           00256                                         MOVWF           PORTB           ; mueve el registro W al puerto 
                            B
0085   1C25           00257                                         BTFSS           DECE,0          ; salta si hay un '1' en el bit0
                             del registro DECE
0086   2889           00258                                         GOTO            pon_ceroD       ; salta a etiqueta SIGUE
0087   1705           00259                                         BSF             PORTA,6 ; pon un '1' en el pin1 del PUERTO A
0088   288A           00260                                         GOTO            terminaD
0089   1305           00261 pon_ceroD                       BCF             PORTA,6 ; pon un '0' en el pin1 del puerto A            
                                                    
008A   0008           00262 terminaD                        RETURN                                  
                      00263 ;####################################################################
008B   0185           00264 limpia_registros                                CLRF            PORTA                                   
                                            ; limpia puerto A
008C   0186           00265                                                         CLRF            PORTB                           
                                                    ; limpia puerto B
                      00266                                                         ;***********************************************
                            *****************
008D   01A4           00267                                                         CLRF            UNI                             
008E   01A5           00268                                                         CLRF            DECE                    
008F   01A6           00269                                                         CLRF            SP                              
0090   01A7           00270                                                         CLRF            uni_comodin             
0091   01A8           00271                                                         CLRF            dece_comodin    
0092   01A9           00272                                                         CLRF            STATUS_TEMP     
0093   01AA           00273                                                         CLRF            PCLATH_TEMP     
0094   01AB           00274                                                         CLRF            W_TEMP          
                      00275                                                         ;***********************************************
                            ***
0095   01AC           00276                                                         CLRF            BINARIO                 
0096   01AD           00277                                                         CLRF            CONTADOR1       
0097   01AE           00278                                                         CLRF            CONTADOR2       
0098   01AF           00279                                                         CLRF            CONTADOR3       
                      00280                                                         ;********************** 
0099   01B0           00281                                                         CLRF            BCDH                    
009A   01B1           00282                                                         CLRF            BCDL                    
009B   01B2           00283                                                         CLRF            BCD_TEMP                
009C   01B3           00284                                                         CLRF            CUENTA          
009D   01B4           00285                                                         CLRF            BIN                             
009E   01B5           00286                                                         CLRF            BIN_comodin                     
                                                            
                      00287                                                         
009F   01B7           00288                                                         CLRF            SEIS_CERO               
00A0   01B8           00289                                                         CLRF            NUEVE_NUEVE
00A1   0008           00290                                                         RETURN
                      00291 ;#######################################################################################################
                            ###################
                      00292 ;-------------------------------------------------------------------------------------------------------
                            ----------------------------------------------------------
                      00293 configura_oscilador                     BANCO1                                  ; selecciona Banco 1; Se
                             encuentran registros TRISA y TRISB
MPASM 03.60 Released                   INTERRUPCION_SP V5.ASM   8-6-2007  19:29:40         PAGE  8


LOC  OBJECT CODE     LINE SOURCE TEXT
  VALUE

00A2   1683               M                         BSF     STATUS,RP0      
00A3   1303               M                         BCF     STATUS,RP1 
                      00294                                                                                                         
                                    ; al reset STATUS=00000000
                      00295                                                                                                         
                                    ; REGISTRO STATUS =     IRP             RP1             RP0             T0_             
                      00296                                                                                                         
                                    ;  RP1 RP0
                      00297                                                                                                         
                                    ;  0            0               banco 0
                      00298                                                                                                         
                                    ;  0            1               banco 1         RP0=1
                      00299                                                                                                         
                                    ;  1            0               banco 2
                      00300                                                                                                         
                                    ;  1            1               banco 3
Message[302]: Register in operand not in bank 0.  Ensure that bank bits are correct.
00A4   170F           00301                                                         BSF             OSCCON,6                ;Pone el
                             oscilador a 4 MHz con el oscilador interno RC; OSCCON controla varios aspectos de operacion del
Message[302]: Register in operand not in bank 0.  Ensure that bank bits are correct.
00A5   168F           00302                                                         BSF             OSCCON,5                ;bit 6-4
                                            110             4 MHZ
                      00303                                                                                                         
                                    ;al reset inicia con 0's el registro.
00A6   0008           00304                                                         RETURN
                      00305 ;#######################################################################################################
                            ############################
                      00306 ;##### CONFIGURA LOS PUERTOS  A y B, (A0,A1,A2,A3 = ENTRADAS)  (A4,A5,A6,A7=SALIDAS),  (B0,B1,B2,B3 = EN
                            TRADAS)  (B4,B5,B6,B7=SALIDAS) ##################
                      00307 configura_puertos                               BANCO1
00A7   1683               M                         BSF     STATUS,RP0      
00A8   1303               M                         BCF     STATUS,RP1 
                      00308                                                         
00A9   30AE           00309                                                         MOVLW           B'10101110'                     
                            ; RA7   RA6             RA5             RA4             RA3             RA2             RA1     
Message[302]: Register in operand not in bank 0.  Ensure that bank bits are correct.
00AA   0085           00310                                                         MOVWF           TRISA                           
                            ;    1            0               1               0               1                1            
                      00311                                                                                                         
                                            ;Puerto A como salida           0 - salida;     1 - entrada
00AB   3001           00312                                                         MOVLW           B'00000001'                     
                            ; RB7   RB6             RB5             RB4             RB3             RB2             RB1     
Message[302]: Register in operand not in bank 0.  Ensure that bank bits are correct.
00AC   0086           00313                                                         MOVWF           TRISB                           
                            ;    0            0               0               0               0                0            
                      00314                                                 
00AD   0008           00315                                                         RETURN
                      00316 ;#######################################################################################################
                            ##############                                                  
                      00317 ;########################################### CONFIGURAR INTERRUPCIONES  ################################
                            #######################
                      00318 configura_interrupciones        BANCO1
00AE   1683               M                         BSF     STATUS,RP0      
MPASM 03.60 Released                   INTERRUPCION_SP V5.ASM   8-6-2007  19:29:40         PAGE  9


LOC  OBJECT CODE     LINE SOURCE TEXT
  VALUE

00AF   1303               M                         BCF     STATUS,RP1 
                      00319                 
Message[302]: Register in operand not in bank 0.  Ensure that bank bits are correct.
00B0   1301           00320                                                 BCF             OPTION_REG,INTEDG                       
                                    ; activa por flanco de bajada, bit INTEDG
                      00321                                                 ;-----------------------------------------------------  
                            HABILITACION DE INTERRUPCIONES -----------------------------------------------------------------
00B1   160B           00322                                                 BSF             INTCON, INTE                            
                                                    ; que sea interrupcion externa por RB0, bit INTE bit 4
00B2   178B           00323                                                 BSF             INTCON, GIE                             
                                                    ; habilitamos interrupcion global GIE bit 7
                      00324                                                         
00B3   0008           00325                                                 RETURN
                      00326 ;#######################################################################################################
                            ####################################
                      00327 configura_TMR0                  BANCO1
00B4   1683               M                         BSF     STATUS,RP0      
00B5   1303               M                         BCF     STATUS,RP1 
                      00328 
Message[302]: Register in operand not in bank 0.  Ensure that bank bits are correct.
00B6   1281           00329                                                 BCF             OPTION_REG,5                            
                                    ; 0 = Internal instruction cycle clock (CLKO)
Message[302]: Register in operand not in bank 0.  Ensure that bank bits are correct.
00B7   1181           00330                                                 BCF             OPTION_REG,3                            
                                    ; 0= pre scaler asignado al TMR0
Message[302]: Register in operand not in bank 0.  Ensure that bank bits are correct.
00B8   1501           00331                                                 BSF             OPTION_REG,2                            
                                    ; PS<2:0>: Prescaler Rate Select bits
Message[302]: Register in operand not in bank 0.  Ensure that bank bits are correct.
00B9   1481           00332                                                 BSF             OPTION_REG,1                            
                                    ; 111           1:256
Message[302]: Register in operand not in bank 0.  Ensure that bank bits are correct.
00BA   1401           00333                                                 BSF             OPTION_REG,0                            
                                    ; preescalador a 256
                      00334                                                 
00BB   110B           00335                                                 BCF             INTCON,2                                
                                            ; limpiar bandera 
00BC   0008           00336                                                 RETURN
                      00337 ;#######################################################################################################
                            ##############
                      00338 retraso_50msTMR0                BANCO1
00BD   1683               M                         BSF     STATUS,RP0      
00BE   1303               M                         BCF     STATUS,RP1 
Message[302]: Register in operand not in bank 0.  Ensure that bank bits are correct.
00BF   1281           00339                                                 BCF             OPTION_REG,5            ; 0 = Internal i
                            nstruction cycle clock (CLKO)   |
Message[302]: Register in operand not in bank 0.  Ensure that bank bits are correct.
00C0   1181           00340                                                 BCF             OPTION_REG,3            ; 0= pre scaler 
                            asignado al TMR0                        |       
Message[302]: Register in operand not in bank 0.  Ensure that bank bits are correct.
00C1   1501           00341                                                 BSF             OPTION_REG,2            ; PS<2:0>: Presc
                            aler Rate Select bits           | QUITAR contar estos microsegundos
Message[302]: Register in operand not in bank 0.  Ensure that bank bits are correct.
MPASM 03.60 Released                   INTERRUPCION_SP V5.ASM   8-6-2007  19:29:40         PAGE 10


LOC  OBJECT CODE     LINE SOURCE TEXT
  VALUE

00C2   1481           00342                                                 BSF             OPTION_REG,1            ; 111           
                            1:256                                           | en el retardo
Message[302]: Register in operand not in bank 0.  Ensure that bank bits are correct.
00C3   1401           00343                                                 BSF             OPTION_REG,0            ; preescalador a
                             256                                            |
                      00344                                                 BANCO0
00C4   1283               M                         BCF     STATUS,RP0      
00C5   1303               M                         BCF     STATUS,RP1
00C6   303C           00345 PRECARGA                                MOVLW            H'3C'                  ; 50ms -->
00C7   0081           00346                                                 MOVWF           TMR0    
00C8   1D0B           00347 AGUANTA                         BTFSS           INTCON,T0IF
00C9   28C8           00348                                                 GOTO            AGUANTA
00CA   110B           00349                                                 BCF             INTCON,T0IF             ; limpiar bander
                            a 
00CB   0008           00350                                                 RETURN
                      00351                                                                                                         
                            ;Cuando se carga un valor en el registro TMR0 (se escribe mediante una
                      00352                                                                                                         
                            ;instrucción), se produce un retardo de dos ciclos de instrucción durante los
                      00353                                                                                                         
                            ;cuales se inhibe tanto el prescaler como TMR0. Será necesario tener en cuenta
                      00354                                                                                                         
                            ;esa inhibición temporal a la hora de realizar una precarga (compensar sumando
                      00355                                                                                                         
                            ;los ciclos de instrucción que “se pierden”)
                      00356 ;#######################################################################################################
                            ################
                      00357 t_adq_20micros                  BANCO0                                  ;selecciona banco 0
00CC   1283               M                         BCF     STATUS,RP0      
00CD   1303               M                         BCF     STATUS,RP1
00CE   3006           00358                                                 MOVLW           H'06'                   ; (1) ciclo de i
                            nstruccion
00CF   00B6           00359                                                 MOVWF           T_ADQ                   ; (1)
00D0   0BB6           00360 esp_t_adq                               DECFSZ  T_ADQ,1         ; (1)           el decremento lo pone en
                             el mismo registro
00D1   28D0           00361                                                 GOTO            esp_t_adq               ; (2)           
                                                    
00D2   0008           00362                                                 RETURN                                  ; (2)           
                            20-4=16;          (3 ciclos)x(6)=18,         en realidad serian como 22 microsegundos
                      00363 ;##########################################################################################
00D3   20BD           00364 medio_segundo   CALL            retraso_50msTMR0
00D4   20BD           00365                                 CALL            retraso_50msTMR0
00D5   20BD           00366                                 CALL            retraso_50msTMR0
00D6   20BD           00367                                 CALL            retraso_50msTMR0
00D7   20BD           00368                                 CALL            retraso_50msTMR0
00D8   20BD           00369                                 CALL            retraso_50msTMR0
00D9   20BD           00370                                 CALL            retraso_50msTMR0
00DA   20BD           00371                                 CALL            retraso_50msTMR0
00DB   20BD           00372                                 CALL            retraso_50msTMR0
00DC   20BD           00373                                 CALL            retraso_50msTMR0
00DD   0008           00374                                 RETURN
                      00375 ;##########################################################################################
00DE                  00376 RETARDO_VARIABLE        ; esta subrutina no debe ser mayor a 64 [micro segundos]
MPASM 03.60 Released                   INTERRUPCION_SP V5.ASM   8-6-2007  19:29:40         PAGE 11


LOC  OBJECT CODE     LINE SOURCE TEXT
  VALUE

                      00377 
                      00378                                 BANCO1                                          ; configura el TMR0
00DE   1683               M                         BSF     STATUS,RP0      
00DF   1303               M                         BCF     STATUS,RP1 
Message[302]: Register in operand not in bank 0.  Ensure that bank bits are correct.
00E0   1281           00379                                 BCF             OPTION_REG,5            ; (1)   0 = Internal instruction
                             cycle clock (CLKO)
Message[302]: Register in operand not in bank 0.  Ensure that bank bits are correct.
00E1   1181           00380                                 BCF             OPTION_REG,3            ; (1)   0= pre scaler asignado a
                            l TMR0
Message[302]: Register in operand not in bank 0.  Ensure that bank bits are correct.
00E2   1501           00381                                 BSF             OPTION_REG,2            ; (1)   PS<2:0>: Prescaler Rate 
                            Select bits
Message[302]: Register in operand not in bank 0.  Ensure that bank bits are correct.
00E3   1081           00382                                 BCF             OPTION_REG,1            ; (1)   101             1:64
Message[302]: Register in operand not in bank 0.  Ensure that bank bits are correct.
00E4   1401           00383                                 BSF             OPTION_REG,0            ; (1) preescalador a 64
00E5   110B           00384                                 BCF             INTCON,2                        ; (1) limpiar bandera 
                      00385 
                      00386                                 BANCO0
00E6   1283               M                         BCF     STATUS,RP0      
00E7   1303               M                         BCF     STATUS,RP1
00E8   0840           00387 PRECARGA_RV     MOVF            DURACION_PULSO,0                ; mueve el registro DURACION al registro
                             W
00E9   0081           00388                                 MOVWF           TMR0                                    ; (1) mueve el r
                            egistro W al registro TMR0
                      00389 
00EA   1D0B           00390 AGUANTA_RV      BTFSS           INTCON,T0IF                             ; (1) espera  la bandera 
00EB   28EA           00391                                 GOTO            AGUANTA_RV                      ; (2)   
                      00392                                 
00EC   1C2E           00393                                 BTFSS           CONTADOR2,0                     ; revisa si va a increme
                            ntar la velocidad o la va a disminuir.
00ED   28EF           00394                                 GOTO            INC_VELOC
00EE   28F6           00395                                 GOTO            DEC_VELOC
                      00396                                 
Message[305]: Using default destination of 1 (file).
00EF   0AC0           00397 INC_VELOC               INCF            DURACION_PULSO          ; (1)    incrementa de 124+1,
00F0   0BAD           00398                                 DECFSZ  CONTADOR1,1
00F1   28FD           00399                                 GOTO            SALIDA
                      00400                                 
00F2   082F           00401                                 MOVF            CONTADOR3,0                     ; mueve el registro CONT
                            ADOR4, al registro W
00F3   00AD           00402                                 MOVWF           CONTADOR1
00F4   142E           00403                                 BSF             CONTADOR2,0
00F5   28FD           00404                                 GOTO            SALIDA
                      00405 
Message[305]: Using default destination of 1 (file).
00F6   03C0           00406 DEC_VELOC       DECF            DURACION_PULSO
00F7   0BAD           00407                                 DECFSZ  CONTADOR1,1
00F8   28FD           00408                                 GOTO            SALIDA
                      00409                                 
00F9   082F           00410                                 MOVF            CONTADOR3,0                     ; mueve el registro CONT
                            ADOR4, al registro W
MPASM 03.60 Released                   INTERRUPCION_SP V5.ASM   8-6-2007  19:29:40         PAGE 12


LOC  OBJECT CODE     LINE SOURCE TEXT
  VALUE

00FA   00AD           00411                                 MOVWF           CONTADOR1
00FB   102E           00412                                 BCF             CONTADOR2,0
00FC   28FD           00413                                 GOTO            SALIDA
                      00414                                                                 
00FD   110B           00415 SALIDA                  BCF             INTCON,T0IF                             ; (1) limpiar bandera 
00FE   0008           00416                                 RETURN                                                  ; (2)
                      00417                                                                                                         
                            ;Cuando se carga un valor en el registro TMR0 (se escribe mediante una
                      00418                                                                                                         
                            ;instrucción), se produce un retardo de dos ciclos de instrucción durante los
                      00419                                 ;                                                                       
                            ;cuales se inhibe tanto el prescaler como TMR0. Será necesario tener en cuenta
                      00420                                                                                                         
                            ;esa inhibición temporal a la hora de realizar una precarga (compensar sumando
                      00421                                                                                                         
                            ;los ciclos de instrucción que “se pierden”)
                      00422 
                      00423 ;################################ PARA QUE NO SE PIERDA AQUI ESTA EL FINAL DEL PROGRAMA ################
                            ################################################################################################
                      00424                                                 END
MPASM 03.60 Released                   INTERRUPCION_SP V5.ASM   8-6-2007  19:29:40         PAGE 13


SYMBOL TABLE
  LABEL                             VALUE 

ACCION_out                        00000043
ADCON0                            0000001F
ADCON1                            0000009F
ADCS0                             00000006
ADCS1                             00000007
ADCS2                             00000006
ADDEN                             00000003
ADFM                              00000007
ADIE                              00000006
ADIF                              00000006
ADON                              00000000
ADRESH                            0000001E
ADRESL                            0000009E
AGUANTA                           000000C8
AGUANTA_RV                        000000EA
ANSEL                             0000009B
AUN_SIGUE_D                       00000063
AUN_SIGUE_U                       00000059
BANCO0                            
BANCO1                            
BANCO2                            
BANCO3                            
BCDH                              00000030
BCDL                              00000031
BCD_TEMP                          00000032
BF                                00000000
BIN                               00000034
BINARIO                           0000002C
BIN_comodin                       00000035
BRGH                              00000002
C                                 00000000
C1INV                             00000004
C1OUT                             00000006
C2INV                             00000005
C2OUT                             00000007
CCP1CON                           00000017
CCP1IE                            00000002
CCP1IF                            00000002
CCP1M0                            00000000
CCP1M1                            00000001
CCP1M2                            00000002
CCP1M3                            00000003
CCP1X                             00000005
CCP1Y                             00000004
CCPR1H                            00000016
CCPR1L                            00000015
CHS0                              00000003
CHS1                              00000004
CHS2                              00000005
CIRC                              0000001D
CIRCULO                           00000021
CIRCULOSP                         00000047
CIS                               00000003
MPASM 03.60 Released                   INTERRUPCION_SP V5.ASM   8-6-2007  19:29:40         PAGE 14


SYMBOL TABLE
  LABEL                             VALUE 

CKE                               00000006
CKP                               00000004
CM0                               00000000
CM1                               00000001
CM2                               00000002
CMCON                             0000009C
CMIE                              00000006
CMIF                              00000006
CONTADOR1                         0000002D
CONTADOR2                         0000002E
CONTADOR3                         0000002F
CONTADOR_D_PULS                   00000041
CREN                              00000004
CSRC                              00000007
CUENTA                            00000033
CUENTA_SP1                        0000003A
CUENTA_SP2                        0000003B
CUENTA_SP3                        0000003C
CUENTA_SP4                        0000003D
CVR0                              00000000
CVR1                              00000001
CVR2                              00000002
CVR3                              00000003
CVRCON                            0000009D
CVREN                             00000007
CVROE                             00000006
CVRR                              00000005
D                                 00000005
DATA_ADDRESS                      00000005
DC                                00000001
DECE                              00000025
DECE_com                          00000039
DEC_VELOC                         000000F6
DURACION_PULSO                    00000040
D_A                               00000005
EEADR                             0000010D
EEADRH                            0000010F
EECON1                            0000018C
EECON2                            0000018D
EEDATA                            0000010C
EEDATH                            0000010E
EEIE                              00000004
EEIF                              00000004
EEPGD                             00000007
F                                 00000001
FERR                              00000002
FREE                              00000004
FSR                               00000004
GIE                               00000007
GO                                00000002
GO_DONE                           00000002
I2C_DATA                          00000005
I2C_READ                          00000002
MPASM 03.60 Released                   INTERRUPCION_SP V5.ASM   8-6-2007  19:29:40         PAGE 15


SYMBOL TABLE
  LABEL                             VALUE 

I2C_START                         00000003
I2C_STOP                          00000004
INC_VELOC                         000000EF
INDF                              00000000
INICIA_SP                         0000002A
INICIO                            00000005
INTCON                            0000000B
INTE                              00000004
INTEDG                            00000006
INTF                              00000001
IOFS                              00000002
IRCF0                             00000004
IRCF1                             00000005
IRCF2                             00000006
IRP                               00000007
NOT_A                             00000005
NOT_ADDRESS                       00000005
NOT_BO                            00000000
NOT_BOR                           00000000
NOT_DONE                          00000002
NOT_PD                            00000003
NOT_POR                           00000001
NOT_RBPU                          00000007
NOT_RC8                           00000006
NOT_T1SYNC                        00000002
NOT_TO                            00000004
NOT_TX8                           00000006
NOT_W                             00000002
NOT_WRITE                         00000002
NUEVE_NUEVE                       00000038
OERR                              00000001
OPTION_REG                        00000081
OSCCON                            0000008F
OSCTUNE                           00000090
OSFIE                             00000007
OSFIF                             00000007
OSTS                              00000003
OTRA_VEZ                          0000002F
P                                 00000004
PCL                               00000002
PCLATH                            0000000A
PCLATH_TEMP                       0000002A
PCON                              0000008E
PEIE                              00000006
PIE1                              0000008C
PIE2                              0000008D
PIR1                              0000000C
PIR2                              0000000D
PORTA                             00000005
PORTB                             00000006
PR2                               00000092
PRECARGA                          000000C6
PRECARGA_RV                       000000E8
MPASM 03.60 Released                   INTERRUPCION_SP V5.ASM   8-6-2007  19:29:40         PAGE 16


SYMBOL TABLE
  LABEL                             VALUE 

PS0                               00000000
PS1                               00000001
PS2                               00000002
PSA                               00000003
QUITA_TIEMPO                      0000003D
R                                 00000002
RBIE                              00000003
RBIF                              00000000
RC8_9                             00000006
RC9                               00000006
RCD8                              00000000
RCIE                              00000005
RCIF                              00000005
RCREG                             0000001A
RCSTA                             00000018
RD                                00000000
READ_WRITE                        00000002
REG_REBOTE1                       0000003E
REG_REBOTE2                       0000003F
RETARDO_VARIABLE                  000000DE
REVISA_D                          00000039
REVISA_PULSO                      00000018
REVISA_U                          00000035
RP0                               00000005
RP1                               00000006
RX9                               00000006
RX9D                              00000000
R_W                               00000002
S                                 00000003
SALIDA                            000000FD
SCS0                              00000000
SCS1                              00000001
SEIS_CERO                         00000037
SIGUEPROG                         00000050
SIGUE_D                           00000062
SIGUE_U                           00000058
SMP                               00000007
SP                                00000026
SPBRG                             00000099
SPEN                              00000007
SP_INTERRUPT                      0000002A
SREN                              00000005
SSPADD                            00000093
SSPBUF                            00000013
SSPCON                            00000014
SSPEN                             00000005
SSPIE                             00000003
SSPIF                             00000003
SSPM0                             00000000
SSPM1                             00000001
SSPM2                             00000002
SSPM3                             00000003
SSPOV                             00000006
MPASM 03.60 Released                   INTERRUPCION_SP V5.ASM   8-6-2007  19:29:40         PAGE 17


SYMBOL TABLE
  LABEL                             VALUE 

SSPSTAT                           00000094
STATUS                            00000003
STATUS_TEMP                       00000029
SWDTE                             00000000
SWDTEN                            00000000
SYNC                              00000004
T0CS                              00000005
T0IE                              00000005
T0IF                              00000002
T0SE                              00000004
T1CKPS0                           00000004
T1CKPS1                           00000005
T1CON                             00000010
T1INSYNC                          00000002
T1OSCEN                           00000003
T1RUN                             00000006
T2CKPS0                           00000000
T2CKPS1                           00000001
T2CON                             00000012
TMR0                              00000001
TMR0IE                            00000005
TMR0IF                            00000002
TMR1CS                            00000001
TMR1H                             0000000F
TMR1IE                            00000000
TMR1IF                            00000000
TMR1L                             0000000E
TMR1ON                            00000000
TMR2                              00000011
TMR2IE                            00000001
TMR2IF                            00000001
TMR2ON                            00000002
TOUTPS0                           00000003
TOUTPS1                           00000004
TOUTPS2                           00000005
TOUTPS3                           00000006
TRISA                             00000085
TRISB                             00000086
TRMT                              00000001
TUN0                              00000000
TUN1                              00000001
TUN2                              00000002
TUN3                              00000003
TUN4                              00000004
TUN5                              00000005
TX8_9                             00000006
TX9                               00000006
TX9D                              00000000
TXD8                              00000000
TXEN                              00000005
TXIE                              00000004
TXIF                              00000004
TXREG                             00000019
MPASM 03.60 Released                   INTERRUPCION_SP V5.ASM   8-6-2007  19:29:40         PAGE 18


SYMBOL TABLE
  LABEL                             VALUE 

TXSTA                             00000098
T_ADQ                             00000036
UA                                00000001
UNI                               00000024
VCFG0                             00000004
VCFG1                             00000005
VUELVE_a9D                        0000005F
VUELVE_a9U                        00000055
W                                 00000000
WCOL                              00000007
WDTCON                            00000105
WDTPS0                            00000001
WDTPS1                            00000002
WDTPS2                            00000003
WDTPS3                            00000004
WR                                00000001
WREN                              00000002
WRERR                             00000003
W_TEMP                            0000002B
Z                                 00000002
_BODEN_OFF                        00003FBF
_BODEN_ON                         00003FFF
_CCP1_RB0                         00003FFF
_CCP1_RB3                         00002FFF
_CONFIG1                          00002007
_CONFIG2                          00002008
_CPD_OFF                          00003FFF
_CPD_ON                           00003EFF
_CP_ALL                           00001FFF
_CP_OFF                           00003FFF
_DEBUG_OFF                        00003FFF
_DEBUG_ON                         000037FF
_EXTCLK                           00003FEF
_EXTRC_CLKOUT                     00003FFF
_EXTRC_IO                         00003FFE
_FCMEN_OFF                        00003FFE
_FCMEN_ON                         00003FFF
_HS_OSC                           00003FEE
_IESO_OFF                         00003FFD
_IESO_ON                          00003FFF
_INTRC_CLKOUT                     00003FFD
_INTRC_IO                         00003FFC
_LP_OSC                           00003FEC
_LVP_OFF                          00003F7F
_LVP_ON                           00003FFF
_MCLR_OFF                         00003FDF
_MCLR_ON                          00003FFF
_PWRTE_OFF                        00003FFF
_PWRTE_ON                         00003FF7
_WDT_OFF                          00003FFB
_WDT_ON                           00003FFF
_WRT_ENABLE_1024                  00003BFF
_WRT_ENABLE_512                   00003DFF
MPASM 03.60 Released                   INTERRUPCION_SP V5.ASM   8-6-2007  19:29:40         PAGE 19


SYMBOL TABLE
  LABEL                             VALUE 

_WRT_ENABLE_OFF                   00003FFF
_XT_OSC                           00003FED
__16F88                           00000001
configura_TMR0                    000000B4
configura_decenas                 0000005C
configura_interrupciones          000000AE
configura_oscilador               000000A2
configura_puertos                 000000A7
configura_unidades                00000052
dece_comodin                      00000028
desplegar_bin_bcd                 00000066
desplegar_d_bcd                   0000007A
desplegar_u_bcd                   00000070
esp_t_adq                         000000D0
limpia_registros                  0000008B
medio_segundo                     000000D3
pon_cero                          0000006E
pon_ceroD                         00000089
pon_ceroU                         00000078
retraso_50msTMR0                  000000BD
t_adq_20micros                    000000CC
termina                           0000006F
terminaD                          0000008A
terminaU                          00000079
uni_comodin                       00000027


MEMORY USAGE MAP ('X' = Used,  '-' = Unused)

0000 : X---XXXXXXXXXXXX XXXXXXXXXXXXXXXX XXXXXXXXXXXXXXXX XXXXXXXXXXXXXXXX
0040 : XXXXXXXXXXXXXXXX XXXXXXXXXXXXXXXX XXXXXXXXXXXXXXXX XXXXXXXXXXXXXXXX
0080 : XXXXXXXXXXXXXXXX XXXXXXXXXXXXXXXX XXXXXXXXXXXXXXXX XXXXXXXXXXXXXXXX
00C0 : XXXXXXXXXXXXXXXX XXXXXXXXXXXXXXXX XXXXXXXXXXXXXXXX XXXXXXXXXXXXXXX-

All other memory blocks unused.

Program Memory Words Used:   252
Program Memory Words Free:  3844


Errors   :     0
Warnings :     0 reported,     0 suppressed
Messages :    24 reported,     0 suppressed

