MPASM 03.60 Released                          SENSOR_TEMP.ASM   6-28-2007  23:35:44         PAGE  1


LOC  OBJECT CODE     LINE SOURCE TEXT
  VALUE

                      00001 ;***************************************************************
                      00002         ; PROGRAMA CONTROL DIFUSO DE TEMPERATURA
                      00003 
                      00004         ;title  "PIC Sample code: PIC16F88 program"
                      00005         ;subtitle       "CARLOS SANTIAGO CRUZ - "
                      00006 
                      00007 ;       codigo para el 16f88 a 4 MHz, RELOJ INTERNO RC
                      00008 ;***************************************************************
                      00009         list    p=16F88
                      00010         #include        <p16F88.inc>
                      00001         LIST
                      00002 ; P16F88.INC  Standard Header File, Version 1.00    Microchip Technology, Inc.
                      00401         LIST
                      00011         
                      00012 #DEFINE BANCO0  BCF     STATUS,RP0
                      00013 #DEFINE BANCO1  BSF     STATUS,RP1
                      00014 
                      00015 ;***************************************************************
                      00016 
  00000020            00017 z1                              equ     20h             ;REGISTROS COMODINES
  00000021            00018 z2                              equ     21h
  00000022            00019 z3                              equ     22h
  00000023            00020 z4                              equ     23h
                      00021 ;****************************************************************
  00000024            00022 UNI                             equ     24h
  00000025            00023 DECE                    equ     25h
  00000026            00024 SP                              equ     26h
  00000027            00025 uni_comodin             equ     27h
  00000028            00026 dece_comodin    equ     28h
  00000029            00027 STATUS_TEMP     equ 29h
  0000002A            00028 PCLATH_TEMP     equ 2Ah
  0000002B            00029 W_TEMP          equ     2Bh
                      00030 ;**************************************************
  0000002C            00031 BINARIO                 equ     2Ch
  0000002D            00032 CONTADOR1       equ 2Dh
  0000002E            00033 CONTADOR2       equ 2Eh
  0000002F            00034 CONTADOR3       equ 2Fh
                      00035 ;********************** 
  00000030            00036 BCDH                    equ 30h
  00000031            00037 BCDL                    equ 31h
  00000032            00038 BCD_TEMP                equ 32h
  00000033            00039 CUENTA          equ 33h
  00000034            00040 BIN                             equ 34h
  00000035            00041 BIN_comodin             equ 35h
                      00042 ;***************************************************************
                      00043 ; RECORDATORIO DE EN DONDE SE ENCUENGRAN ALGUNOS REGISTROS 
                      00044 ;       ADRESH  1Eh             banco 0
                      00045 ;       ADRESL  9Eh             banco 1
                      00046 ;       ANSEL           9Bh             banco 1
                      00047 ;       ADCON0  1Fh             banco 0
                      00048 ;       ADCON1  9Fh             banco 1
                      00049 ;****************************************************************
                      00050 
MPASM 03.60 Released                          SENSOR_TEMP.ASM   6-28-2007  23:35:44         PAGE  2


LOC  OBJECT CODE     LINE SOURCE TEXT
  VALUE

                      00051 ;#######################################################################################################
                            ############################
0000                  00052                                                         ORG             0x00
0000   2805           00053                                                         GOTO            INICIO
                      00054         
0004                  00055                                                         ORG             0x04
0004   283E           00056                                                         GOTO            SP_INTERRUPT
                      00057 
0005                  00058                                                         ORG             0x05
                      00059 ;#######################################################################################################
                            ############################
                      00060 
0005   2071           00061 INICIO                                          CALL            limpiar_registros                       
                                            ; Limpia todos los registros a usar
                      00062                                                         ;-----------------------------------------------
                            ------------------------------------------------------------------------------------------------
0006   1703           00063                                                         BANCO1
                      00064                                                                                                         
                                                                    ; al reset STATUS=00000000
                      00065                                                                                                         
                                                                    ; REGISTRO STATUS =     IRP             RP1             
                      00066                                                                                                         
                                                                    ;  RP1 RP0
                      00067                                                                                                         
                                                                    ;  0            0               banco 0
                      00068                                                                                                         
                                                                    ;  0            1               banco 1         RP0=1
                      00069                                                                                                         
                                                                    ;  1            0               banco 2
                      00070                                                                                                         
                                                                    ;  1            1               banco 3
                      00071                                                                                                         
                                                                    ;-------------------------------------------------------
                      00072                                                                                                         
                                                                    ; OSCCON                --      IRCF2   IRCF1   IRCF0   
                      00073                                                                                                         
                                                                    ;                               bit 6-4 IRCF<2:0>: Inter
                      00074                                                                                                         
                                                                    ;                               
                      00075                                                                                                         
                                                                    ;                               000 = 31.25 kHz
                      00076                                                                                                         
                                                                    ;                               001 = 125 kHz
                      00077                                                                                                         
                                                                    ;                               010 = 250 kHz
                      00078                                                                                                         
                                                                    ;                               011 = 500 kHz
                      00079                                                                                                         
                                                                    ;                               100 = 1 MHz
                      00080                                                                                                         
                                                                    ;                               101 = 2 MHz
                      00081                                                                                                         
                                                                    ;                               110 = 4 MHz
MPASM 03.60 Released                          SENSOR_TEMP.ASM   6-28-2007  23:35:44         PAGE  3


LOC  OBJECT CODE     LINE SOURCE TEXT
  VALUE

                      00082                                                                                                         
                                                                    ;                               111 = 8 MHz
Message[302]: Register in operand not in bank 0.  Ensure that bank bits are correct.
0007   170F           00083                                                         BSF             OSCCON,6                        
                                                    ;Pone el oscilador a 4 MHz con el oscilador interno RC; OSCCON controla 
Message[302]: Register in operand not in bank 0.  Ensure that bank bits are correct.
0008   168F           00084                                                         BSF             OSCCON,5                        
                                                    ;bit 6-4                        110             4 MHZ
Message[302]: Register in operand not in bank 0.  Ensure that bank bits are correct.
0009   120F           00085                                                         BCF             OSCCON,4                        
                                                    ;al reset inicia con 0's el registro.
                      00086                                                         ;-----------------------------------------------
                            ------------------------------------------------------------------------------------------------
000A   1703           00087                                                         BANCO1
000B   3007           00088                                                         MOVLW           H'07'                           
                                                    ;carga el registro W con 07             0000 0111, al reset 0000 0111
Message[302]: Register in operand not in bank 0.  Ensure that bank bits are correct.
000C   009C           00089                                                         MOVWF           CMCON                           
                                                    ;CMCON ->       C2OUT   C1OUT   C2INV   C1INV   CIS      CM2  CM1  CM0
                      00090                                                                                                         
                                                                    ; ver los modos de operacion de los comparadores
                      00091                                                                                                         
                                                                    ; comparadores apagados
                      00092                                                                                                         
                                                                                                                            
                      00093 ;##### CONFIGURA LOS PUERTOS  A y B, (A0,A1,A2,A3 = ENTRADAS)  (A4,A5,A6,A7=SALIDAS),  (B0,B1,B2,B3 = EN
                            TRADAS)  (B4,B5,B6,B7=SALIDAS) ##################
000D   1703           00094                                                         BANCO1
                      00095                                                         
000E   30BF           00096                                                         MOVLW           B'10111111'                     
                                                    ; RA7   RA6             RA5             RA4             RA3             
Message[302]: Register in operand not in bank 0.  Ensure that bank bits are correct.
000F   0085           00097                                                         MOVWF           TRISA                           
                                                    ;    1            0               1               1               1     
                      00098                                                                                                         
                                                                    ;Puerto A como salida           0 - salida;     1 - entr
0010   3001           00099                                                         MOVLW           B'00000001'                     
                                                    ; RA7   RA6             RA5             RA4             RA3             
Message[302]: Register in operand not in bank 0.  Ensure that bank bits are correct.
0011   0086           00100                                                         MOVWF           TRISB                           
                                                    ;    0            0               0               0               0     
                      00101 
                      00102 ;########################################## CONFIGURANDO EL CONVERTIDOR A/D ############################
                            ##############################
                      00103 
                      00104                                                                                                         
                                            ;1.     Configure el modulo A/D
                      00105                                                                                                         
                                            ;               •       Configurar E/S analógica/digital        (ANSEL) BANCO 1 
0012   1703           00106                                                         BANCO1                                          
                            ; selecciona banco 1
                      00107                                                         
Message[302]: Register in operand not in bank 0.  Ensure that bank bits are correct.
MPASM 03.60 Released                          SENSOR_TEMP.ASM   6-28-2007  23:35:44         PAGE  4


LOC  OBJECT CODE     LINE SOURCE TEXT
  VALUE

0013   141B           00108                                                         BSF                     ANSEL,0         ; Regist
                            ro ANSEL - ANS6 ANS5 ANS4 ANS3 ANS2 ANS1 ANS0 
                      00109                                                                                                         
                                            ; Configura la funcion de los pines de los puertos
                      00110                                                                                                         
                                            ; pueden ser configurados como entradas analògicas 
                      00111                                                                                                         
                                            ; (RA3,RA2 tambien pueden ser tensiones de referencia)
                      00112                                                                                                         
                                            ; o como entradas/salidas digitales; 
                      00113                                                                                                         
                                            ;       1 - analog I/O; 
                      00114                                                                                                         
                                            ;       0 - digital I/O
                      00115                                                                                                         
                                            ; 
                      00116                                                                                                         
                                            ;-------------------------------------------------------------------------------
0014   1703           00117                                                         BANCO1                                          
                            ;       (selecciona banco 1)                                                                    
                      00118                                                                                                         
                                            ;               •       Configurar tensión de referencia.       (ADCON1)        
                      00119 
                      00120                                                                                                         
                                            ; ADCON1:       ADFM    ADCS2   VCFG1           VCFG0     --      --      --    
                      00121                                                                                                         
                                            ; Bit 7 ADFM: selección de bit de resultado de formato A/D
                      00122                                                                                                         
                                            ;                               1=justificación derecha: los seis bits mas signi
Message[302]: Register in operand not in bank 0.  Ensure that bank bits are correct.
0015   139F           00123                                                         BCF                     ADCON1,7                
                            ;                               0=justificación izquierda: los seis bits menos significativos de
                      00124                                                                                                         
                                            ; Bit 6 ADSC2: bit de selección de división de reloj por 2 del A/D
                      00125                                                                                                         
                                            ;                               1=fuente de reloj es dividida por 2 cuando el si
Message[302]: Register in operand not in bank 0.  Ensure that bank bits are correct.
0016   131F           00126                                                         BCF                     ADCON1,6                
                            ;                               0=deshabilitado.                                                
                      00127                                                                                                         
                                            ; Bit 5-4       VCFG <1:0> bits de configuración de las tensiones de referencia 
                      00128                                                                                                         
                                            ;                               Estado lógico           VREF+ VREF- 
Message[302]: Register in operand not in bank 0.  Ensure that bank bits are correct.
0017   129F           00129                                                         BCF                     ADCON1,5                
                            ;                               00                              AVDD  AVSS              *Elegimo
Message[302]: Register in operand not in bank 0.  Ensure that bank bits are correct.
0018   121F           00130                                                         BCF                     ADCON1,4                
                            ;                               01                              AVDD   VREF-
                      00131                                                                                                         
                                            ;                               10                              VREF+   AVSS
                      00132                                                                                                         
                                            ;                               11                              VREF+   VREF-
MPASM 03.60 Released                          SENSOR_TEMP.ASM   6-28-2007  23:35:44         PAGE  5


LOC  OBJECT CODE     LINE SOURCE TEXT
  VALUE

                      00133                                                                                                         
                                            ; Bit  3-0      Sin implementación leídos como ‘0’
                      00134 
                      00135                                                                                                         
                                            ;primero vamos a poner el ADSC2=0, pero creo que en el reset es 0 :)            
                      00136                                                                                                         
                                            ;-------------------------------------------------------------------------------
0019   1283           00137                                                         BANCO0                                          
                            ; selecciona banco 0
                      00138                                                                                                         
                                            ; ADCON0:       ADSC1   ADCS0   CHS2    CHS1    CHS0    DO/DONE --      ADON
                      00139                                                                                                         
                                            ;                               1               1          0             0      
001A   179F           00140                                                         BSF             ADCON0,7                        
                            ;Bit 7-6        ADSC<1:0> selección de bits del reloj de conversión
001B   171F           00141                                                         BSF             ADCON0,6                        
                            ;       If ADSC2=0
                      00142                                                                                                         
                                            ;               00 Fosc/2
                      00143                                                                                                         
                                            ;               01 Fosc/8
                      00144                                                                                                         
                                            ;               10 Fosc/32
                      00145                                                                                                         
                                            ;               11 FRC (reloj derivado del oscilador interno RC del modulo A/D) 
                      00146                                                                                                         
                                            ;       if ADSC2=1
                      00147                                                                                                         
                                            ;               00 Fosc/4
                      00148                                                                                                         
                                            ;               01 Fosc/16
                      00149                                                                                                         
                                            ;               10 Fosc/64
                      00150                                                                                                         
                                            ;               11 FRC (reloj derivado del oscilador interno RC del modulo A/D) 
001C   129F           00151                                                         BCF             ADCON0,5                        
                            ;Bit 5-3        CHS <2:0> selección de bits para los canales analógicos
001D   121F           00152                                                         BCF             ADCON0,4                        
                            ;               000 canal 0 (RA0/AN0)
001E   119F           00153                                                         BCF             ADCON0,3                        
                            ;               001 canal 1 (RA1/AN1)
                      00154                                                                                                         
                                            ;               010 canal 2 (RA2/AN2)
                      00155                                                                                                         
                                            ;               011 canal 3 (RA3/AN3)
                      00156                                                                                                         
                                            ;               100 canal 4 (RA4/AN4)
                      00157                                                                                                         
                                            ;               101 canal 5 (RB6/AN5)
                      00158                                                                                                         
                                            ;               110 canal 6 (RB7/AN6)
                      00159                                                         ;(utilizados en prog princ)                     
                            ;Bit 2  GO/DONE_ bit de estado de la conversión (A/D)
MPASM 03.60 Released                          SENSOR_TEMP.ASM   6-28-2007  23:35:44         PAGE  6


LOC  OBJECT CODE     LINE SOURCE TEXT
  VALUE

                      00160                                                                                                         
                                            ;               If ADON=1
                      00161                                                                                                         
                                            ;                                       1=la conversión esta en progreso (ponien
                      00162                                                                                                         
                                            ;                                       0=la conversión no esta en progreso (est
                      00163                                                                                                         
                                            ;Bit 1  Sin implementar: leído como ‘0’
                      00164                                                         ;(utilizado en prog princ)                      
                            ;Bit 0  ADON: bit de encendido del A/D
                      00165                                                                                                         
                                            ;                                       1=modulo convertidor A/D esta operando
                      00166                                                                                                         
                                            ;                                       0=modulo convertidor esta apagado y no c
                      00167         
                      00168                 ;hecho arriba                                                                           
                                    ;               •       Seleccionar reloj de conversión A/D     (ADCON0)
                      00169 ;#######################################################################################################
                            ##############################
                      00170 ;############################### CONFIGURAR FLANCO DE SUBIDA PARA INTERRUPCION EXTERNA POR PIN RB0 #####
                            ##########################
                      00171 
001F   1703           00172                                                         BANCO1
Message[302]: Register in operand not in bank 0.  Ensure that bank bits are correct.
0020   1701           00173                                                         BSF             OPTION_REG,6                    
                                            ; activa por flanco de subida, bit INTEDG
                      00174 
                      00175 ;#######################################################################################################
                            ##############################
                      00176 ;################################################# HABILITACION DE INTERRUPCIONES ######################
                            #####################################################
0021   1703           00177                                                         BANCO1
0022   160B           00178                                                         BSF             INTCON, 4                       
                                            ; que sea interrupcion externa por RB0, bit INTE bit 4
0023   178B           00179                                                         BSF             INTCON, 7                       
                                    ; habilitamos interrupcion global GIE bit 7
                      00180 
                      00181 ;#######################################################################################################
                            ####################################
                      00182 
                      00183 ;################################# EMPIEZA LA CONVERSION #############################
0024   1283           00184                         BANCO0
0025   141F           00185                         BSF             ADCON0,0                        ;               •       Encienda
                             el modulo A/D  (ADCON0)        (biit cero)
                      00186                                                                                         ;2.     Configur
                            ar interrupción A/D (si se desea)
                      00187                                                                                         ;               
                            •       Poner a ‘0’ bit ADIF
                      00188                         ;no deseamos                                    ;               •       Poner a 
                            ‘1’ bit ADIE
                      00189                                                                                         ;               
                            •       Poner a ‘1’ bit PEIE
                      00190                                                                                         ;               
MPASM 03.60 Released                          SENSOR_TEMP.ASM   6-28-2007  23:35:44         PAGE  7


LOC  OBJECT CODE     LINE SOURCE TEXT
  VALUE

                            •       Poner a ‘1’ bit GIE
0026   2032           00191 REG             CALL            RETRASO                 ;3.     Esperar el tiempo de adquisición requeri
                            do
                      00192                                                                                         ;4.     Empezar 
                            conversión.
0027   151F           00193                         BSF             ADCON0,2                        ;               •       Poner a 
                            ‘1’ bit GO/DONE_ (ADCON0)
0028   191F           00194 ESP             BTFSC           ADCON0,2                        ;5.     Esperar para completar la conver
                            sión A/D, por cualquiera de los siguientes:
0029   2828           00195                         GOTO            ESP                             ;               •       Poleando
                             (modo poleo o de ciclo) para que el bit GO/DONE_ sea puesto a ‘0’ (con interrupción deshabilita
                      00196                                                                                         ;               
                            •       Esperando por interrupción de A/D
                      00197                                                                                         ;6.     Leer el 
                            registro par que da el resultado de la conversión. (ADRESH:ADRESL); en este caso nos mostrara lo
                      00198                         
                      00199                                                                                         ;               
                            •       Poner a ‘0’ bit ADIF si es requerido.
                      00200                                                                                         ;7.     Para la 
                            siguiente conversión, vaya a los pasos 1 o paso 2 como sea requerido. El tiempo de conversión po
                      00201                                                                                         ; regresa por ot
                            ra conversion
002A   1283           00202                         BANCO0
002B   081E           00203                         MOVF            ADRESH,0                        ;mueve el registro ADRESH al reg
                            istro W
                      00204                         
002C   00B5           00205                         MOVWF           BIN_comodin                     ; salva el numero binario en BIN
                            _comodin
002D   00B4           00206                         MOVWF           BIN                                     ; salva el numero binari
                            o en BIN
002E   203F           00207                         CALL            BIN_BCD         ; llama a la subrutina de conversion de BINARIO 
                            A BCD
                      00208                                                                                         ; en el registro
                             BCDL se encuentran (NIBBLE decenas)(NIBBLE UNIDADES), necesitamos desplegarlo en el display 7 s
002F   2068           00209                         CALL            desplegar_bin_bcd                                               
                                                                            
0030   2032           00210                         CALL            RETRASO
0031   2826           00211                         GOTO            REG
                      00212 ;***************************************************************;***************************************
                            ************************;***************************************************************;*******
                      00213 ;*************Retraso **************************************************
                      00214 
0032   1283           00215 RETRASO                 BANCO0
0033   3003           00216                                         MOVLW                   D'3'
0034   00A2           00217                                         MOVWF                   z3
0035   3089           00218                                         MOVLW                   D'137'
0036   00A1           00219                                         MOVWF                   z2
0037   0BA0           00220                                         DECFSZ          z1,f
0038   2837           00221                                         GOTO                    $-1
0039   0BA1           00222                                         DECFSZ          z2,f
003A   2837           00223                                         GOTO                    $-3
003B   0BA2           00224                                         DECFSZ          z3,f
003C   2837           00225                                         GOTO                    $-5
MPASM 03.60 Released                          SENSOR_TEMP.ASM   6-28-2007  23:35:44         PAGE  8


LOC  OBJECT CODE     LINE SOURCE TEXT
  VALUE

003D   0008           00226                                         RETURN
                      00227 
                      00228 ;#######################################################################################################
                            ############################
                      00229 ;INTERRUPCION
                      00230 
003E   0009           00231 SP_INTERRUPT            RETFIE
                      00232 ;#######################################################################################################
                            ############################    
003F   1283           00233 BIN_BCD         BANCO0
0040   01B0           00234                                 clrf                    BCDH
0041   01B1           00235                                 clrf                    BCDL
                      00236 
0042   3008           00237                                 movlw           0x08
0043   00B3           00238                                 movwf           CUENTA
                      00239 
0044                  00240 CONVERSION1
0044   1003           00241                                 bcf                      STATUS,C
0045   0DB4           00242                                 rlf                     BIN,f
0046   0DB1           00243                                 rlf                     BCDL,f
0047   0BB3           00244                                 decfsz                  CUENTA,f
0048   284A           00245                                 goto                    $+2
0049   2859           00246                                 goto                    TERMINA_CONVERSION
004A   300F           00247                                 movlw           b'00001111'
004B   0531           00248                                 andwf                   BCDL,w
004C   00B2           00249                                 movwf           BCD_TEMP
004D   3005           00250                                 movlw           0x05
004E   0232           00251                                 subwf                   BCD_TEMP,w
004F   1803           00252                                 btfsc                   STATUS,C
0050   205A           00253                                 call                    sum3nib_bajo
0051   30F0           00254                                 movlw           b'11110000'
0052   0531           00255                                 andwf                   BCDL,w
0053   00B2           00256                                 movwf           BCD_TEMP
0054   3050           00257                                 movlw           0x50
0055   0232           00258                                 subwf                    BCD_TEMP,w
0056   1803           00259                                 btfsc                   STATUS,C
0057   2061           00260                                 call                    sum3nib_alto
0058   2844           00261                                 goto                    CONVERSION1
                      00262 
0059                  00263 TERMINA_CONVERSION
0059   0008           00264                                 return
                      00265                                 
                      00266                                 ;*******************************
                      00267                                 ;Subrutina que se encarga de
                      00268                                 ;sumar 3 al nibble bajo de BCDL
                      00269                                 ;*******************************
005A   1283           00270 sum3nib_bajo    BANCO0
005B   3003           00271                                 movlw           0x03
005C   07B1           00272                                 addwf           BCDL,f
005D   1C03           00273                                 btfss           STATUS,C
005E   0008           00274                                 return
005F   0DB0           00275                                 rlf                     BCDH,f
0060   0008           00276                                 return
MPASM 03.60 Released                          SENSOR_TEMP.ASM   6-28-2007  23:35:44         PAGE  9


LOC  OBJECT CODE     LINE SOURCE TEXT
  VALUE

                      00277                                 
                      00278                                 ;*******************************
                      00279                                 ;Subrutina que se encarga de
                      00280                                 ;sumar 3 al nibble alto de BCDL
                      00281                                 ;*******************************
0061   1283           00282 sum3nib_alto            BANCO0
0062   3030           00283                                 movlw           0x30
0063   07B1           00284                                 addwf           BCDL,f
0064   1C03           00285                                 btfss           STATUS,C
0065   0008           00286                                 return
0066   0DB0           00287                                 rlf                     BCDH,f
0067   0008           00288                                 return
                      00289 ;###################################################################
                      00290 ; movemos el registro BCDL al puerto B y el bit0 del registro BCDL al pin1 del puerto A
                      00291 
0068   1283           00292 desplegar_bin_bcd       BANCO0
                      00293 
0069   0831           00294                                         MOVF            BCDL,0          ; mueve el reg BCDL al registro 
                            W
006A   0086           00295                                         MOVWF           PORTB           ; mueve el registro W al PORTB
006B   1C31           00296                                         BTFSS           BCDL,0          ; salta si hay un '1' en el bit0
                             del registro BCDL
006C   286F           00297                                         GOTO            pon_cero        ; salta a etiqueta SIGUE
006D   1705           00298                                         BSF             PORTA,6 ; pon un '1' en el pin1 del PUERTO A
006E   2870           00299                                         GOTO            termina
006F   1305           00300 pon_cero                        BCF             PORTA,6 ; pon un '0' en el pin1 del puerto A            
                                                    
0070   0008           00301 termina                         RETURN                                  
                      00302                                                                 
                      00303 ;####################################################################
0071   1283           00304 limpiar_registros                               BANCO0
0072   0185           00305                                                         CLRF            PORTA                           
                                                    ; limpia puerto A
0073   0186           00306                                                         CLRF            PORTB                           
                                                    ; limpia puerto B
0074   01A0           00307                                                         CLRF            z1                              
                                    
0075   01A1           00308                                                         CLRF            z2                              
0076   01A2           00309                                                         CLRF            z3                              
0077   01A3           00310                                                         CLRF            z4                              
                      00311                                                         ;***********************************************
                            *****************
0078   01A4           00312                                                         CLRF            UNI                             
0079   01A5           00313                                                         CLRF            DECE                    
007A   01A6           00314                                                         CLRF            SP                              
007B   01A7           00315                                                         CLRF            uni_comodin             
007C   01A8           00316                                                         CLRF            dece_comodin    
007D   01A9           00317                                                         CLRF            STATUS_TEMP     
007E   01AA           00318                                                         CLRF            PCLATH_TEMP     
007F   01AB           00319                                                         CLRF            W_TEMP          
                      00320                                                         ;***********************************************
                            ***
0080   01AC           00321                                                         CLRF            BINARIO                 
MPASM 03.60 Released                          SENSOR_TEMP.ASM   6-28-2007  23:35:44         PAGE 10


LOC  OBJECT CODE     LINE SOURCE TEXT
  VALUE

0081   01AD           00322                                                         CLRF            CONTADOR1       
0082   01AE           00323                                                         CLRF            CONTADOR2       
0083   01AF           00324                                                         CLRF            CONTADOR3       
                      00325                                                         ;********************** 
0084   01B0           00326                                                         CLRF            BCDH                    
0085   01B1           00327                                                         CLRF            BCDL                    
0086   01B2           00328                                                         CLRF            BCD_TEMP                
0087   01B3           00329                                                         CLRF            CUENTA          
0088   01B4           00330                                                         CLRF            BIN                             
0089   01B5           00331                                                         CLRF            BIN_comodin                     
                                                            
008A   0008           00332                                                         RETURN
                      00333 ;################################ PARA QUE NO SE PIERDA AQUI ESTA EL FINAL DEL PROGRAMA ################
                            ################################################################################################
                      00334                                         END
MPASM 03.60 Released                          SENSOR_TEMP.ASM   6-28-2007  23:35:44         PAGE 11


SYMBOL TABLE
  LABEL                             VALUE 

ADCON0                            0000001F
ADCON1                            0000009F
ADCS0                             00000006
ADCS1                             00000007
ADCS2                             00000006
ADDEN                             00000003
ADFM                              00000007
ADIE                              00000006
ADIF                              00000006
ADON                              00000000
ADRESH                            0000001E
ADRESL                            0000009E
ANSEL                             0000009B
BANCO0                            BCF     STATUS,RP0
BANCO1                            BSF     STATUS,RP1
BCDH                              00000030
BCDL                              00000031
BCD_TEMP                          00000032
BF                                00000000
BIN                               00000034
BINARIO                           0000002C
BIN_BCD                           0000003F
BIN_comodin                       00000035
BRGH                              00000002
C                                 00000000
C1INV                             00000004
C1OUT                             00000006
C2INV                             00000005
C2OUT                             00000007
CCP1CON                           00000017
CCP1IE                            00000002
CCP1IF                            00000002
CCP1M0                            00000000
CCP1M1                            00000001
CCP1M2                            00000002
CCP1M3                            00000003
CCP1X                             00000005
CCP1Y                             00000004
CCPR1H                            00000016
CCPR1L                            00000015
CHS0                              00000003
CHS1                              00000004
CHS2                              00000005
CIS                               00000003
CKE                               00000006
CKP                               00000004
CM0                               00000000
CM1                               00000001
CM2                               00000002
CMCON                             0000009C
CMIE                              00000006
CMIF                              00000006
CONTADOR1                         0000002D
MPASM 03.60 Released                          SENSOR_TEMP.ASM   6-28-2007  23:35:44         PAGE 12


SYMBOL TABLE
  LABEL                             VALUE 

CONTADOR2                         0000002E
CONTADOR3                         0000002F
CONVERSION1                       00000044
CREN                              00000004
CSRC                              00000007
CUENTA                            00000033
CVR0                              00000000
CVR1                              00000001
CVR2                              00000002
CVR3                              00000003
CVRCON                            0000009D
CVREN                             00000007
CVROE                             00000006
CVRR                              00000005
D                                 00000005
DATA_ADDRESS                      00000005
DC                                00000001
DECE                              00000025
D_A                               00000005
EEADR                             0000010D
EEADRH                            0000010F
EECON1                            0000018C
EECON2                            0000018D
EEDATA                            0000010C
EEDATH                            0000010E
EEIE                              00000004
EEIF                              00000004
EEPGD                             00000007
ESP                               00000028
F                                 00000001
FERR                              00000002
FREE                              00000004
FSR                               00000004
GIE                               00000007
GO                                00000002
GO_DONE                           00000002
I2C_DATA                          00000005
I2C_READ                          00000002
I2C_START                         00000003
I2C_STOP                          00000004
INDF                              00000000
INICIO                            00000005
INTCON                            0000000B
INTE                              00000004
INTEDG                            00000006
INTF                              00000001
IOFS                              00000002
IRCF0                             00000004
IRCF1                             00000005
IRCF2                             00000006
IRP                               00000007
NOT_A                             00000005
NOT_ADDRESS                       00000005
MPASM 03.60 Released                          SENSOR_TEMP.ASM   6-28-2007  23:35:44         PAGE 13


SYMBOL TABLE
  LABEL                             VALUE 

NOT_BO                            00000000
NOT_BOR                           00000000
NOT_DONE                          00000002
NOT_PD                            00000003
NOT_POR                           00000001
NOT_RBPU                          00000007
NOT_RC8                           00000006
NOT_T1SYNC                        00000002
NOT_TO                            00000004
NOT_TX8                           00000006
NOT_W                             00000002
NOT_WRITE                         00000002
OERR                              00000001
OPTION_REG                        00000081
OSCCON                            0000008F
OSCTUNE                           00000090
OSFIE                             00000007
OSFIF                             00000007
OSTS                              00000003
P                                 00000004
PCL                               00000002
PCLATH                            0000000A
PCLATH_TEMP                       0000002A
PCON                              0000008E
PEIE                              00000006
PIE1                              0000008C
PIE2                              0000008D
PIR1                              0000000C
PIR2                              0000000D
PORTA                             00000005
PORTB                             00000006
PR2                               00000092
PS0                               00000000
PS1                               00000001
PS2                               00000002
PSA                               00000003
R                                 00000002
RBIE                              00000003
RBIF                              00000000
RC8_9                             00000006
RC9                               00000006
RCD8                              00000000
RCIE                              00000005
RCIF                              00000005
RCREG                             0000001A
RCSTA                             00000018
RD                                00000000
READ_WRITE                        00000002
REG                               00000026
RETRASO                           00000032
RP0                               00000005
RP1                               00000006
RX9                               00000006
MPASM 03.60 Released                          SENSOR_TEMP.ASM   6-28-2007  23:35:44         PAGE 14


SYMBOL TABLE
  LABEL                             VALUE 

RX9D                              00000000
R_W                               00000002
S                                 00000003
SCS0                              00000000
SCS1                              00000001
SMP                               00000007
SP                                00000026
SPBRG                             00000099
SPEN                              00000007
SP_INTERRUPT                      0000003E
SREN                              00000005
SSPADD                            00000093
SSPBUF                            00000013
SSPCON                            00000014
SSPEN                             00000005
SSPIE                             00000003
SSPIF                             00000003
SSPM0                             00000000
SSPM1                             00000001
SSPM2                             00000002
SSPM3                             00000003
SSPOV                             00000006
SSPSTAT                           00000094
STATUS                            00000003
STATUS_TEMP                       00000029
SWDTE                             00000000
SWDTEN                            00000000
SYNC                              00000004
T0CS                              00000005
T0IE                              00000005
T0IF                              00000002
T0SE                              00000004
T1CKPS0                           00000004
T1CKPS1                           00000005
T1CON                             00000010
T1INSYNC                          00000002
T1OSCEN                           00000003
T1RUN                             00000006
T2CKPS0                           00000000
T2CKPS1                           00000001
T2CON                             00000012
TERMINA_CONVERSION                00000059
TMR0                              00000001
TMR0IE                            00000005
TMR0IF                            00000002
TMR1CS                            00000001
TMR1H                             0000000F
TMR1IE                            00000000
TMR1IF                            00000000
TMR1L                             0000000E
TMR1ON                            00000000
TMR2                              00000011
TMR2IE                            00000001
MPASM 03.60 Released                          SENSOR_TEMP.ASM   6-28-2007  23:35:44         PAGE 15


SYMBOL TABLE
  LABEL                             VALUE 

TMR2IF                            00000001
TMR2ON                            00000002
TOUTPS0                           00000003
TOUTPS1                           00000004
TOUTPS2                           00000005
TOUTPS3                           00000006
TRISA                             00000085
TRISB                             00000086
TRMT                              00000001
TUN0                              00000000
TUN1                              00000001
TUN2                              00000002
TUN3                              00000003
TUN4                              00000004
TUN5                              00000005
TX8_9                             00000006
TX9                               00000006
TX9D                              00000000
TXD8                              00000000
TXEN                              00000005
TXIE                              00000004
TXIF                              00000004
TXREG                             00000019
TXSTA                             00000098
UA                                00000001
UNI                               00000024
VCFG0                             00000004
VCFG1                             00000005
W                                 00000000
WCOL                              00000007
WDTCON                            00000105
WDTPS0                            00000001
WDTPS1                            00000002
WDTPS2                            00000003
WDTPS3                            00000004
WR                                00000001
WREN                              00000002
WRERR                             00000003
W_TEMP                            0000002B
Z                                 00000002
_BODEN_OFF                        00003FBF
_BODEN_ON                         00003FFF
_CCP1_RB0                         00003FFF
_CCP1_RB3                         00002FFF
_CONFIG1                          00002007
_CONFIG2                          00002008
_CPD_OFF                          00003FFF
_CPD_ON                           00003EFF
_CP_ALL                           00001FFF
_CP_OFF                           00003FFF
_DEBUG_OFF                        00003FFF
_DEBUG_ON                         000037FF
_EXTCLK                           00003FEF
MPASM 03.60 Released                          SENSOR_TEMP.ASM   6-28-2007  23:35:44         PAGE 16


SYMBOL TABLE
  LABEL                             VALUE 

_EXTRC_CLKOUT                     00003FFF
_EXTRC_IO                         00003FFE
_FCMEN_OFF                        00003FFE
_FCMEN_ON                         00003FFF
_HS_OSC                           00003FEE
_IESO_OFF                         00003FFD
_IESO_ON                          00003FFF
_INTRC_CLKOUT                     00003FFD
_INTRC_IO                         00003FFC
_LP_OSC                           00003FEC
_LVP_OFF                          00003F7F
_LVP_ON                           00003FFF
_MCLR_OFF                         00003FDF
_MCLR_ON                          00003FFF
_PWRTE_OFF                        00003FFF
_PWRTE_ON                         00003FF7
_WDT_OFF                          00003FFB
_WDT_ON                           00003FFF
_WRT_ENABLE_1024                  00003BFF
_WRT_ENABLE_512                   00003DFF
_WRT_ENABLE_OFF                   00003FFF
_XT_OSC                           00003FED
__16F88                           00000001
dece_comodin                      00000028
desplegar_bin_bcd                 00000068
limpiar_registros                 00000071
pon_cero                          0000006F
sum3nib_alto                      00000061
sum3nib_bajo                      0000005A
termina                           00000070
uni_comodin                       00000027
z1                                00000020
z2                                00000021
z3                                00000022
z4                                00000023


MEMORY USAGE MAP ('X' = Used,  '-' = Unused)

0000 : X---XXXXXXXXXXXX XXXXXXXXXXXXXXXX XXXXXXXXXXXXXXXX XXXXXXXXXXXXXXXX
0040 : XXXXXXXXXXXXXXXX XXXXXXXXXXXXXXXX XXXXXXXXXXXXXXXX XXXXXXXXXXXXXXXX
0080 : XXXXXXXXXXX----- ---------------- ---------------- ----------------

All other memory blocks unused.

Program Memory Words Used:   136
Program Memory Words Free:  3960


MPASM 03.60 Released                          SENSOR_TEMP.ASM   6-28-2007  23:35:44         PAGE 17





Errors   :     0
Warnings :     0 reported,     0 suppressed
Messages :    12 reported,     0 suppressed

