MPASM 03.60 Released                             INTERRUP.ASM   8-23-2007  12:22:44         PAGE  1


LOC  OBJECT CODE     LINE SOURCE TEXT
  VALUE

                      00001 ;*******************************************************************************************************
                            ************************************************************************************************
                      00002                         list    p=16F88
                      00003                         #include        <p16F88.inc>
                      00001         LIST
                      00002 ; P16F88.INC  Standard Header File, Version 1.00    Microchip Technology, Inc.
                      00401         LIST
                      00004 ;*******************************************************************************************************
                            ************************************************************************************************
                      00005 BANCO0          MACRO                           ; todos los 16F88 son capaces de direccionar bloque un b
                            loque de 8K continuos de palabra de memoria de programa
                      00006                         BCF     STATUS,RP0      ; las instrucciones CALL and GOTO proveen solo 11 bits d
                            e direccion para permitir saltar dentro de alguna pagina de 
                      00007                         BCF     STATUS,RP1      ; de memoria de programa de 2K
                      00008                         ENDM                            ; PCL tiene 11 bits para direccionar la memoria 
                            de programa, 2^11 = 2048 
                      00009 BANCO1          MACRO                           ; Cuando se hace una instruccion CALL o GOTO, los dos bi
                            ts mas signifitivos de la direccion son entregados 
                      00010                         BSF     STATUS,RP0      ; por PCLATH<4:3>
                      00011                         BCF     STATUS,RP1      ; Cuando se hace una instruccion CALL o GOTO, el usuario
                             debe asegurar que los bits seleccionados de la pagina
                      00012                         ENDM                            ; son programados, asi la pagina de la memoria d
                            e programa deseada es direccionada.
                      00013 BANCO2          MACRO                           ; si un retorno de una instruccion CALL (o interrupcion 
                            ) es ejecutada. Los 13 bits del PC son POPPED OFF
                      00014                         BCF     STATUS,RP0      ; de la pila. Por lo tanto, la manipulacion de los bits 
                            PCLATH<4:3> no son requeridas por la instruccion RETURN
                      00015                         BSF     STATUS,RP1      ; (el cual POPS la direccion desde la pila)
                      00016                         ENDM                                    
                      00017 BANCO3          MACRO                           ; OJO: el contenido del registro PCLATH se mantiene sin 
                            cambios despues de una instruccion RETURN, RETFIE
                      00018                         BSF     STATUS,RP0      ; ejecutada. El usuario debe reescribir el contenido de 
                            el registro PCLATH para alguna subsecuente llamada
                      00019                         BSF     STATUS,RP1      ; de subrutina o instruccion GOTO.
                      00020                         ENDM
                      00021 ;*******************************************************************************************************
                            ************************************************************************************************
                      00022                                 ; PC de 13 bits                                                 ; PC    
                            LATH     | 4 | 3 |              PCL     |7|6|5|4|3|2|1|0|       11 bits del PROGRAM COUNTER (PC)
                      00023                                 ; MEMORIA                       PAGINA 0                        ----> 00
                            05 a la 07FF            05     a la 2047
                      00024         ; 4K x 14               ; DE PROGRAMA           PAGINA 1                        ----> 0800 a la 
                            0FFF            2048 a la 4095                          2048 a la ( 2^11 = 2048 ) x 2 = 4096 pal
                      00025                                 ; MEMORIA
                      00026         ;4K x 14                ; DE DATOS                                      CATALOGADA EN 4 BANCOS  
                            -----> 00 a la 1FF                                      
                      00027         ;14 es la amplitud del bus de la memoria de programa
                      00028 ;*******************************************************************************************************
                            ************************************************************************************************
  00000024            00029 UNI                             equ     24h     ; RECORDATORIO DE EN DONDE SE ENCUENGRAN ALGUNOS REGISTR
                            OS 
  00000025            00030 DECE                    equ     25h     ;       ADRESH  1Eh             banco 0
  00000026            00031 SP                              equ     26h     ;       ADRESL  9Eh             banco 1
MPASM 03.60 Released                             INTERRUP.ASM   8-23-2007  12:22:44         PAGE  2


LOC  OBJECT CODE     LINE SOURCE TEXT
  VALUE

  00000027            00032 uni_comodin             equ     27h     ;       ANSEL           9Bh             banco 1
  00000028            00033 dece_comodin    equ     28h     ;       ADCON0  1Fh             banco 0
  00000029            00034 STATUS_TEMP     equ 29h ;       ADCON1  9Fh             banco 1
  0000002A            00035 PCLATH_TEMP     equ 2Ah ;*******************************************************************************
                            ************************************************************************************************
  0000002B            00036 W_TEMP          equ     2Bh
                      00037 ;*******************************************************************************************************
                            ************************************************************************************************
  0000002C            00038 BINARIO                 equ     2Ch
  0000002D            00039 CONTADOR1       equ 2Dh
  0000002E            00040 CONTADOR2       equ 2Eh
  0000002F            00041 CONTADOR3       equ 2Fh
                      00042 ;*******************************************************************************************************
                            ************************************************************************************************
  00000030            00043 BCDH                    equ 30h
  00000031            00044 BCDL                    equ 31h
  00000032            00045 BCD_TEMP                equ 32h
                      00046 
  00000034            00047 BIN                             equ 34h
  00000035            00048 BIN_comodin             equ 35h
  00000036            00049 T_ADQ                   equ 36h
                      00050 ;*******************************************************************************************************
                            ************************************************************************************************
  00000037            00051 SEIS_CERO               equ     37h
  00000038            00052 NUEVE_NUEVE     equ  38h
                      00053 ;*******************************************************************************************************
                            ************************************************************************************************
  00000039            00054 DECE_com                equ     39h
                      00055 ;CUENTASP1      equ 3Ah
                      00056 ;CUENTASP2      equ 3Bh
                      00057 ;CUENTASP3      equ 3Ch
                      00058 ;CUENTASP4      equ 3Dh
  0000003E            00059 REG_REBOTE1     equ 3Eh
  0000003F            00060 REG_REBOTE2     equ     3Fh
  00000040            00061 RETARDO_PULSO           equ     40h
  00000042            00062 RETARDO_PULSO_com       equ 42h
  00000043            00063 VECES_MISMO_RET         equ 43h
  00000044            00064 CUENTA                          equ 44h
  00000033            00065 CUENTA100                               equ 33h
  00000041            00066 CONTADOR_D_PULS equ 41h
  00000042            00067 COM                                     equ 42h   
  00000043            00068 CUENTA100_com           equ 43h
                      00069 ;*******************************************************************************************************
                            ************************************************************************************************
  00000045            00070 CUENTASP1                       equ 45h
  00000046            00071 CUENTASP2                       equ 46h
  00000047            00072 CUENTASP3                       equ 47h
  00000048            00073 CUENTASP4                       equ 48h
  00000049            00074 PORTA_com                               equ     49h
  0000004A            00075 PORTB_com                               equ     4Ah
  0000004B            00076 UNI_com                         equ     4Bh
  0000004C            00077 TEMPERATURA_SP          equ 4Ch
                      00078 ;#######################################################################################################
MPASM 03.60 Released                             INTERRUP.ASM   8-23-2007  12:22:44         PAGE  3


LOC  OBJECT CODE     LINE SOURCE TEXT
  VALUE

                            ############################
0000                  00079                         ORG             0x00
0000   2805           00080                         GOTO            INICIO
0004                  00081                         ORG             0x04
0004   2900           00082                         GOTO            SP_INTERRUPT
                      00083 ;#######################################################################################################
                            ############################
0005                  00084                         ORG             0x05
0005   2238           00085 INICIO          CALL            limpia_registros
0006   2251           00086                         CALL            configura_oscilador
                      00087                         ;CALL           configura_TMR0
                      00088                         ;CALL           configura_comparadores  ; un comparador independiente
0007   2256           00089                         CALL            configura_puertos
                      00090                         ;CALL           configura_convertidor
0008   225D           00091                         CALL            configura_interrupciones
                      00092                                         ;-----------------------------------------------------  PROGRAMA
                             PRINCIPAL -------------------------------------------------------------------------------------
                      00093                                         BANCO0
0009   1283               M                         BCF     STATUS,RP0      ; las instrucciones CALL and GOTO proveen solo 11 bits d
                            e direccion para permitir saltar dentro de alguna pagina de 
000A   1303               M                         BCF     STATUS,RP1      ; de memoria de programa de 2K
000B   1003           00094                                         BCF             STATUS,C
000C   1103           00095                                         BCF             STATUS,Z
000D   3003           00096                                         MOVLW           B'00000011'
000E   00C5           00097                                         MOVWF           CUENTASP1       
000F   3005           00098                                         MOVLW           B'00000101'
0010   0245           00099                                         SUBWF           CUENTASP1,0
                      00100                                         ;---------------------------------------------------------------
                            ------------------------------------------------------------------------------------------------
                      00101 INICIO_PRINC            BANCO0
0011   1283               M                         BCF     STATUS,RP0      ; las instrucciones CALL and GOTO proveen solo 11 bits d
                            e direccion para permitir saltar dentro de alguna pagina de 
0012   1303               M                         BCF     STATUS,RP1      ; de memoria de programa de 2K
0013   01C1           00102                                         CLRF            CONTADOR_D_PULS
0014   3064           00103                                         MOVLW           H'64'                                           
                            ; 100 decimal = 64h
0015   00B3           00104                                         MOVWF           CUENTA100
                      00105                                         ;---------------------------------------------------------------
                            ------------------------------------------------------------------------------------------------
0016   3064           00106                                         MOVLW           H'64'                                   ; 100 ve
                            ces
0017   00C3           00107                                         MOVWF           VECES_MISMO_RET         
                      00108                                         ;---------------------------------------------------------------
                            ------------------------------------------------------------------------------------------------
0018   1B85           00109 REVISA_CRUCEx01 BTFSC           PORTA,7                         ; monitorea el pulso de cruce por cero
0019   2818           00110                                         GOTO            REVISA_CRUCEx01         ; monitorea el pulso de 
                            cruce por cero
001A   1205           00111                                         BCF             PORTA,4
                      00112                                         ;---------------------------------------------------------------
                            ------------------------------------------------------------------------------------------------
001B   0833           00113                                         MOVF            CUENTA100,0                     ; la primera vez
                             mueve un 88 al registro W
001C   00C0           00114                                         MOVWF           RETARDO_PULSO           ; mueve el 88 al registr
MPASM 03.60 Released                             INTERRUP.ASM   8-23-2007  12:22:44         PAGE  4


LOC  OBJECT CODE     LINE SOURCE TEXT
  VALUE

                            o RETARDO de PULSO
001D   2452           00115 HAZ1                            CALL            t83_micros
001E   0BC0           00116                                         DECFSZ  RETARDO_PULSO,1         ; decrementa el registro y almac
                            enalo en el mismo       
001F   281D           00117                                         GOTO            HAZ1
Message[305]: Using default destination of 1 (file).
0020   0AC1           00118                                         INCF            CONTADOR_D_PULS                                 
                                                                                                    ; 8.333 [ms]/100 = 83.33
                      00119                                         ;---------------------------------------------------------------
                            ------------------------------------------------------------------------------------------------
0021   1605           00120                                         BSF             PORTA,4                         ; TERCERO: APARE
                            CE EL PULSO 
0022   2427           00121                                         CALL            t1_ms                                   ; CUARTO
                            : DURACION DEL PULSO DE  1 ms
0023   1205           00122                                         BCF             PORTA,4                         ; QUINTO: DESAPA
                            RECE EL PULSO, Y 
                      00123                                         ;---------------------------------------------------------------
                            ------------------------------------------------------------------------------------------------
0024   0BC3           00124                                         DECFSZ  VECES_MISMO_RET,1
0025   282C           00125                                         GOTO            SALIR_AOTRO     
                      00126                                         ;---------------------------------------------------------------
                            ------------------------------------------------------------------------------------------------
0026   3064           00127                                         MOVLW           H'64'
0027   00C3           00128                                         MOVWF           VECES_MISMO_RET         
0028   2829           00129                                         GOTO            DEC_CUENTA
                      00130                                         ;---------------------------------------------------------------
                            ------------------------------------------------------------------------------------------------
0029   0BB3           00131 DEC_CUENTA              DECFSZ  CUENTA100,1
002A   282C           00132                                         GOTO            SALIR_AOTRO
002B   282D           00133                                         GOTO            FINALIZA
002C   2818           00134 SALIR_AOTRO             GOTO            REVISA_CRUCEx01         ; SEXTO: ESPERA UN NUEVO CRUCE POR CERO
                      00135                                         ;---------------------------------------------------------------
                            -----------------------------------------------------------------------------
002D   2811           00136 FINALIZA                        GOTO            INICIO_PRINC
                      00137 
                      00138 ;{{{{{{{{{{{{{{{{{{{{{{{{{{{{{{{{{{{{{{{{{{{{{{{{{{{{{{{{{{{{{{{{{{{{{{{{{{{{{{{{{{  SUBRUTINA DE INTERR
                            UPCION }}}}}}}}}}}}}}}}}}}}}}}}}}}}}}}}}}}}}}}}}}}}}}}}}}}}}}}}}}}}}}}}}}}}}}}}}}}}}}}}}}}}}}}}}
0100                  00139                                 ORG             0x100
0100   00AB           00140 SP_INTERRUPT    MOVWF   W_TEMP          ;Copy W to TEMP register                                        
                                                    ;codigo propuesto por hoja de especificaciones
0101   0E03           00141                                 SWAPF           STATUS,0                ;Swap status to be saved into W 
                                                                            ;codigo propuesto por hoja de especificaciones
0102   0183           00142                                 CLRF            STATUS          ;bank 0, regardless of current bank, Cle
                            ars IRP,RP1,RP0 ;codigo propuesto por hoja de especificaciones
0103   00A9           00143                                 MOVWF   STATUS_TEMP     ;Save status to bank zero STATUS_TEMP register  
                                            ;codigo propuesto por hoja de especificaciones
                      00144                                 ;MOVF           PCL,0                   ;Only required if using page 1  
                                                                            ;codigo propuesto por hoja de especificaciones
                      00145                                 ;MOVWF  PCLATH_TEMP     ;Save PCLATH into W                             
                                                                    ;codigo propuesto por hoja de especificaciones
                      00146                                 ;CLRF           PCL                     ;Page zero, regardless of curren
                            t page                                  ;codigo propuesto por hoja de especificaciones
                      00147                                 ; ======================================================================
MPASM 03.60 Released                             INTERRUP.ASM   8-23-2007  12:22:44         PAGE  5


LOC  OBJECT CODE     LINE SOURCE TEXT
  VALUE

                            ================================
0104   01CA           00148 INICIA_SP               CLRF            PORTB_com
0105   1305           00149                                 BCF             PORTA,6
0106   3009           00150                                 MOVLW           H'09'
0107   00A4           00151                                 MOVWF           UNI
0108   00A5           00152                                 MOVWF           DECE
                      00153                                 ;-----------------------------------------------------------------------
                            ------------------------------------------------------------------------------------------------
0109   226D           00154                                 CALL            desplegar_u_bcd
010A   2279           00155                                 CALL            desplegar_d_bcd
                      00156                                 ;-----------------------------------------------------------------------
                            ------------------------------------------------------------------------------------------------
010B   30FF           00157 OTRA_VEZ                MOVLW           H'FF'                                           ;(1)            
                                                                            UTILIZADO PARA EL TIEMPO DE CONFIGURACION       
010C   00C5           00158                                 MOVWF           CUENTASP1                               ;(1)            
                                                                            UTILIZADO PARA EL TIEMPO DE CONFIGURACION       
010D   30FF           00159                                 MOVLW           H'FF'                                           ;(1)    
                                                                                    UTILIZADO PARA EL TIEMPO DE CONFIGURACIO
010E   00C6           00160                                 MOVWF           CUENTASP2                               ;(1)            
                                                                            UTILIZADO PARA EL TIEMPO DE CONFIGURACION       
010F   300C           00161                                 MOVLW           H'0C'                                           ;(1)    
                            ;carga un  decimal                              UTILIZADO PARA EL TIEMPO DE CONFIGURACION       
0110   00C7           00162                                 MOVWF           CUENTASP3                               ;(1)            
                            255x255x15x1 micro sec = 
                      00163                                 ;-----------------------------------------------------------------------
                            ------------------------------------------------------------------------------------------------
0111   1F86           00164 REVISA_U                BTFSS           PORTB,7                         ;(1)                            
                                                                    REVISA BOTON UNIDADES
0112   2911           00165                                 GOTO            REVISA_U                                ;(2)            
                                                                                    REVISA BOTON UNIDADES
                      00166                                 ;-----------------------------------------------------------------------
                            ------------------------------------------------------------------------------------------------
                      00167                                 
0113   240B           00168                                 CALL            t250_ms                                 ; REBOTE
0114   2200           00169                                 CALL            configura_unidades                      
0115   226D           00170                                 CALL            desplegar_u_bcd
0116   290B           00171                                 GOTO            OTRA_VEZ
                      00172                                 ;-----------------------------------------------------------------------
                            ------------------------------------------------------------------------------------------------
0117   1E85           00173 REVISA_D                BTFSS           PORTA,5                         ;(1)                            
                                                                    REVISA BOTON DECENAS
0118   291C           00174                                 GOTO            QUITA_TIEMPO                    ;(2)                    
                            ; 9 ciclos de instruccion,      REVISA BOTON DECENAS
                      00175                                 ;-----------------------------------------------------------------------
                            ------------------------------------------------------------------------------------------------
0119   240B           00176                                 CALL            t250_ms                                 ; REBOTE
011A   221C           00177                                 CALL            configura_decenas
011B   290B           00178                                 GOTO            OTRA_VEZ
                      00179                                 ;-----------------------------------------------------------------------
                            ------------------------------------------------------------------------------------------------
011C   0BC5           00180 QUITA_TIEMPO    DECFSZ  CUENTASP1,1                     ;(1)
011D   2911           00181                                 GOTO            REVISA_U                                ;(2)
                      00182                                 ;-----------------------------------------------------------------------
MPASM 03.60 Released                             INTERRUP.ASM   8-23-2007  12:22:44         PAGE  6


LOC  OBJECT CODE     LINE SOURCE TEXT
  VALUE

                            ------------------------------------------------------------------------------------------------
011E   0BC6           00183                                 DECFSZ  CUENTASP2,1                     ;(1)
011F   2911           00184                                 GOTO            REVISA_U                                ;(2)
0120   0BC7           00185                                 DECFSZ  CUENTASP3,1                     ;(1)
0121   2911           00186                                 GOTO            REVISA_U                                ;(2)
                      00187                                 ;-----------------------------------------------------------------------
                            ------------------------------------------------------------------------------------------------
                      00188 ACCION_out              BANCO0
0122   1283               M                         BCF     STATUS,RP0      ; las instrucciones CALL and GOTO proveen solo 11 bits d
                            e direccion para permitir saltar dentro de alguna pagina de 
0123   1303               M                         BCF     STATUS,RP1      ; de memoria de programa de 2K
0124   3006           00189                                 MOVLW           H'06'                   ; PARA DESPLEGAR 6 VECES EL NUME
                            RO ESTABLECIDO 
0125   00C5           00190                                 MOVWF           CUENTASP1       ;
                      00191                                 ;-----------------------------------------------------------------------
                            ------------------------------------------------------------------------------------------------
0126   226D           00192 PARPADEA                CALL            desplegar_u_bcd ;despliega UNI
0127   2279           00193                                 CALL            desplegar_d_bcd ; despliega DECE
0128   2400           00194                                 CALL            tmedio_s                ; RETARDO DE MEDIO SEGUNDO
0129   30FF           00195                                 MOVLW           H'FF'                   ; despliega NADA 
012A   0086           00196                                 MOVWF           PORTB                   ; despliega NADA 
012B   1705           00197                                 BSF             PORTA,6         ; despliega NADA 
012C   1786           00198                                 BSF             PORTB,7         ; despliega NADA 
012D   2400           00199                                 CALL            tmedio_s                ; RETARDO DE MEDIO SEGUNDO
012E   0BC5           00200                                 DECFSZ  CUENTASP1,1                             
012F   2926           00201                                 GOTO            PARPADEA
                      00202                                 ;-----------------------------------------------------------------------
                            ------------------------------------------------------------------------------------------------
0130   228D           00203                                 CALL            BCD_BINARIO
                      00204                                 ;-----------------------------------------------------------------------
                            ------------------------------------------------------------------------------------------------
                      00205                                 ; ========== recuperacion de reg import =============
                      00206                                 ;MOVF           PCLATH_TEMP,0           ;Restore PCLATH                 
                                                    ;codigo propuesto por hoja de especificaciones
                      00207                                 ;MOVWF  PCL                                     ;Move W into PCLATH     
                                                            ;codigo propuesto por hoja de especificaciones
0131   0E29           00208 SIGUEPROG               SWAPF           STATUS_TEMP,0           ;Swap STATUS_TEMP register into W       
                            ;codigo propuesto por hoja de especificaciones
                      00209                                                                                                         
                            ;(sets bank to original state)                          ;codigo propuesto por hoja de especifica
0132   0083           00210                                 MOVWF   STATUS                          ;Move W into STATUS register    
                                            ;codigo propuesto por hoja de especificaciones
0133   0EAB           00211                                 SWAPF           W_TEMP,1                                ;Swap W_TEMP    
                                                                    ;codigo propuesto por hoja de especificaciones
0134   0E2B           00212                                 SWAPF           W_TEMP,0                                ;Swap W_TEMP int
                            o W                             ;codigo propuesto por hoja de especificaciones
                      00213                                 ;==============================================
0135   108B           00214                                 BCF             INTCON,1                                ;limpia bandera 
                            de interrupcion RB0                                             
0136   0009           00215                                 RETFIE                                                          ;regresa
                             de la interrupcion
                      00216 ;}}}}}}}}}}}}}}}}}}}}}}}}}}}}}}}}}}}}}}}}}}}}}}}}}}}}}}}}}}}}}}}}}}}}}}}}}} TERMINA SUBRUTINA DE INTERRU
                            PCION }}}}}}}}}}}}}}}}}}}}}}}}}}}}}}}}}}}}}}}}}}}}}}}}}}}}}}}}}}}}}}}}}}}}}}}}}}}}}}}}}}}}}}}}}}
MPASM 03.60 Released                             INTERRUP.ASM   8-23-2007  12:22:44         PAGE  7


LOC  OBJECT CODE     LINE SOURCE TEXT
  VALUE

                      00217 ;########################################## SUBRUTINAS DE RETRASO DE TIEMPO ############################
                            ######################################################################
0400                  00218                                 ORG             0x400                           ; 1024
                      00219 ;#######################################################################################################
                            ############
0400   2411           00220 tmedio_s                CALL            t50msTMR0
0401   2411           00221                                 CALL            t50msTMR0                       ;100 ms
0402   2411           00222                                 CALL            t50msTMR0
0403   2411           00223                                 CALL            t50msTMR0                       ;200 ms
0404   2411           00224                                 CALL            t50msTMR0
0405   2411           00225                                 CALL            t50msTMR0                       ; 300 ms
0406   2411           00226                                 CALL            t50msTMR0
0407   2411           00227                                 CALL            t50msTMR0                       ; 400 ms 
0408   2411           00228                                 CALL            t50msTMR0
0409   2411           00229                                 CALL            t50msTMR0                       ; 500 ms
040A   0008           00230                                 RETURN
                      00231 ;#######################################################################################################
                            #################
040B   2411           00232 t250_ms                 CALL            t50msTMR0
040C   2411           00233                                 CALL            t50msTMR0                       ;100 ms
040D   2411           00234                                 CALL            t50msTMR0
040E   2411           00235                                 CALL            t50msTMR0                       ;200 ms
040F   2411           00236                                 CALL            t50msTMR0                       ;250 ms
0410   0008           00237                                 RETURN
                      00238 ;#######################################################################################################
                            ##############################
                      00239 t50msTMR0                               BANCO1
0411   1683               M                         BSF     STATUS,RP0      ; por PCLATH<4:3>
0412   1303               M                         BCF     STATUS,RP1      ; Cuando se hace una instruccion CALL o GOTO, el usuario
                             debe asegurar que los bits seleccionados de la pagina
Message[302]: Register in operand not in bank 0.  Ensure that bank bits are correct.
0413   1281           00240                                                 BCF             OPTION_REG,5            ; 0 = Internal i
                            nstruction cycle clock (CLKO)   |
Message[302]: Register in operand not in bank 0.  Ensure that bank bits are correct.
0414   1181           00241                                                 BCF             OPTION_REG,3            ; 0= pre scaler 
                            asignado al TMR0                        |       
                      00242                                                 ;-------------------------------------------------------
                            ------------------------------------------------------------------------------------------------
Message[302]: Register in operand not in bank 0.  Ensure that bank bits are correct.
0415   1501           00243                                                 BSF             OPTION_REG,2            ; PS<2:0>: Presc
                            aler Rate Select bits           | QUITAR contar estos microsegundos
Message[302]: Register in operand not in bank 0.  Ensure that bank bits are correct.
0416   1481           00244                                                 BSF             OPTION_REG,1            ; 111           
                            1:256                                           | en el retardo
Message[302]: Register in operand not in bank 0.  Ensure that bank bits are correct.
0417   1401           00245                                                 BSF             OPTION_REG,0            ; preescalador a
                             256                                            |
                      00246                                                 ;-------------------------------------------------------
                            ------------------------------------------------------------------------------------------------
                      00247                                                 BANCO0
0418   1283               M                         BCF     STATUS,RP0      ; las instrucciones CALL and GOTO proveen solo 11 bits d
                            e direccion para permitir saltar dentro de alguna pagina de 
0419   1303               M                         BCF     STATUS,RP1      ; de memoria de programa de 2K
MPASM 03.60 Released                             INTERRUP.ASM   8-23-2007  12:22:44         PAGE  8


LOC  OBJECT CODE     LINE SOURCE TEXT
  VALUE

041A   303C           00248 PRECARGA                                MOVLW            H'3C'                  ; 50ms -->
041B   0081           00249                                                 MOVWF           TMR0                    ;       TMR0 =  
                            [255 - {(fxt)(temporizacion deseada)}/(4*divisor de frecuencia)]
041C   1D0B           00250 AGUANTAretraso50ms      BTFSS           INTCON,T0IF
041D   2C1C           00251                                                 GOTO            AGUANTAretraso50ms
041E   110B           00252                                                 BCF             INTCON,T0IF             ; limpiar bander
                            a 
041F   0008           00253                                                 RETURN                                  ;Cuando se carga
                             un valor en el registro TMR0 (se escribe mediante una
                      00254                                                                                                         
                            ;instrucción), se produce un retardo de dos ciclos de instrucción durante los
                      00255                                                                                                         
                            ;cuales se inhibe tanto el prescaler como TMR0. Será necesario tener en cuenta
                      00256                                                                                                         
                            ;esa inhibición temporal a la hora de realizar una precarga (compensar sumando
                      00257                                                                                                         
                            ;los ciclos de instrucción que “se pierden”)
                      00258 ;#######################################################################################################
                            ################
0420                  00259 t_20micros
                      00260 t_adq_20micros                  BANCO0                                  ;selecciona banco 0
0420   1283               M                         BCF     STATUS,RP0      ; las instrucciones CALL and GOTO proveen solo 11 bits d
                            e direccion para permitir saltar dentro de alguna pagina de 
0421   1303               M                         BCF     STATUS,RP1      ; de memoria de programa de 2K
0422   3006           00261                                                 MOVLW           H'06'                   ; (1) ciclo de i
                            nstruccion
0423   00B6           00262                                                 MOVWF           T_ADQ                   ; (1)
0424   0BB6           00263 esp_t_adq                               DECFSZ  T_ADQ,1         ; (1)           el decremento lo pone en
                             el mismo registro
0425   2C24           00264                                                 GOTO            esp_t_adq               ; (2)           
                                                    
0426   0008           00265                                                 RETURN                                  ; (2)           
                            20-4=16;          (3 ciclos)x(6)=18,         en realidad serian como 22 microsegundos
                      00266 ;#######################################################################################################
                            #########
                      00267 t1_ms                                   BANCO1                                  ; (2) CALL 
0427   1683               M                         BSF     STATUS,RP0      ; por PCLATH<4:3>
0428   1303               M                         BCF     STATUS,RP1      ; Cuando se hace una instruccion CALL o GOTO, el usuario
                             debe asegurar que los bits seleccionados de la pagina
Message[302]: Register in operand not in bank 0.  Ensure that bank bits are correct.
0429   1281           00268                                                 BCF             OPTION_REG,5    ;(1)    ; 0 = Internal i
                            nstruction cycle clock (CLKO)   |
Message[302]: Register in operand not in bank 0.  Ensure that bank bits are correct.
042A   1181           00269                                                 BCF             OPTION_REG,3    ;(1)    ; 0= pre scaler 
                            asignado al TMR0                        |       
                      00270                                                 ;-------------------------------------------------------
                            ------------------------------------------------------------------------------------------------
Message[302]: Register in operand not in bank 0.  Ensure that bank bits are correct.
042B   1501           00271                                                 BSF             OPTION_REG,2    ;(1)    ; PS<2:0>: Presc
                            aler Rate Select bits           | QUITAR contar estos microsegundos
Message[302]: Register in operand not in bank 0.  Ensure that bank bits are correct.
042C   1481           00272                                                 BSF             OPTION_REG,1    ;(1)    ; 111           
                            1:256                                           | en el retardo
MPASM 03.60 Released                             INTERRUP.ASM   8-23-2007  12:22:44         PAGE  9


LOC  OBJECT CODE     LINE SOURCE TEXT
  VALUE

Message[302]: Register in operand not in bank 0.  Ensure that bank bits are correct.
042D   1401           00273                                                 BSF             OPTION_REG,0    ;(1)    ; preescalador a
                             256                                            |
                      00274                                                 ;-------------------------------------------------------
                            ------------------------------------------------------------------------------------------------
                      00275                                                 BANCO0
042E   1283               M                         BCF     STATUS,RP0      ; las instrucciones CALL and GOTO proveen solo 11 bits d
                            e direccion para permitir saltar dentro de alguna pagina de 
042F   1303               M                         BCF     STATUS,RP1      ; de memoria de programa de 2K
0430   30FB           00276 PRECARGA_un_ms          MOVLW            H'FB'                  ;(1)    ; 
0431   0081           00277                                                 MOVWF           TMR0                    ;(1)    ;       
                            TMR0 =  [255 - {(fxt)(temporizacion deseada)}/(4*divisor de frecuencia)]
0432   1D0B           00278 AGUANTA_un_ms           BTFSS           INTCON,T0IF             ;(2) ;          TMR0 =  [255 - {(4MHz)(1
                            ms)}/(4*256)]= 255 - 3.9 = 255-4 = 251d=FB
0433   2C32           00279                                                 GOTO            AGUANTA_un_ms           ;(2)
0434   110B           00280                                                 BCF             INTCON,T0IF             ;(1)    ; limpia
                            r bandera 
0435   0008           00281                                                 RETURN                                  ;(2)
                      00282                                                                                                         
                            ;Cuando se carga un valor en el registro TMR0 (se escribe mediante una
                      00283                                                                                                         
                            ;instrucción), se produce un retardo de dos ciclos de instrucción durante los
                      00284                                                                                                         
                            ;cuales se inhibe tanto el prescaler como TMR0. Será necesario tener en cuenta
                      00285                                                                                                         
                            ;esa inhibición temporal a la hora de realizar una precarga (compensar sumando
                      00286                                                                                                         
                            ;los ciclos de instrucción que “se pierden”)
                      00287 ;#######################################################################################################
                            ##########################################################################
                      00288 t100_micros             BANCO0                                  ;selecciona banco 0
0436   1283               M                         BCF     STATUS,RP0      ; las instrucciones CALL and GOTO proveen solo 11 bits d
                            e direccion para permitir saltar dentro de alguna pagina de 
0437   1303               M                         BCF     STATUS,RP1      ; de memoria de programa de 2K
0438   3020           00289                                 MOVLW           H'20'                   ; (1) ciclo de instruccion
0439   00B6           00290                                 MOVWF           T_ADQ                   ; (1)
043A   0BB6           00291 esp_100micros   DECFSZ  T_ADQ,1         ; (1)           el decremento lo pone en el mismo registro
043B   2C3A           00292                                 GOTO            esp_100micros   ; (2)                                   
043C   0008           00293                                 RETURN                                  ; (2)           100-4=96;       
                              (3 ciclos)x(32)=96            32d=20h
                      00294 ;#######################################################################################################
                            ###########
                      00295 t250_micros             BANCO0                                  ;selecciona banco 0
043D   1283               M                         BCF     STATUS,RP0      ; las instrucciones CALL and GOTO proveen solo 11 bits d
                            e direccion para permitir saltar dentro de alguna pagina de 
043E   1303               M                         BCF     STATUS,RP1      ; de memoria de programa de 2K
043F   3052           00296                                 MOVLW           H'52'                   ; (1) ciclo de instruccon
0440   00B6           00297                                 MOVWF           T_ADQ                   ; (1)
0441   0BB6           00298 esp_t250_micros DECFSZ  T_ADQ,1         ; (1)           el decremento lo pone en el mismo registro
0442   2C41           00299                                 GOTO            esp_t250_micros ; (2)                                   
0443   0008           00300                                 RETURN                                  ; (2)           250-4=246;      
                              (3 ciclos)x(82)=246;  82d=52h
                      00301 ;#######################################################################################################
MPASM 03.60 Released                             INTERRUP.ASM   8-23-2007  12:22:44         PAGE 10


LOC  OBJECT CODE     LINE SOURCE TEXT
  VALUE

                            ###########
                      00302 t600_micros             BANCO0                                  ;selecciona banco 0
0444   1283               M                         BCF     STATUS,RP0      ; las instrucciones CALL and GOTO proveen solo 11 bits d
                            e direccion para permitir saltar dentro de alguna pagina de 
0445   1303               M                         BCF     STATUS,RP1      ; de memoria de programa de 2K
0446   30C7           00303                                 MOVLW           H'C7'                   ; (1) ciclo de instruccion
0447   00B6           00304                                 MOVWF           T_ADQ                   ; (1)
0448   0BB6           00305 esp_t600_micros DECFSZ  T_ADQ,1         ; (1)           el decremento lo pone en el mismo registro
0449   2C48           00306                                 GOTO            esp_t600_micros ; (2)                                   
044A   0008           00307                                 RETURN                                  ; (2)           600-4=596;      
                              (3 ciclos)x()=496;    199d=C7h
                      00308 ;#######################################################################################################
                            ############
                      00309 t500_micros             BANCO0                                  ;selecciona banco 0
044B   1283               M                         BCF     STATUS,RP0      ; las instrucciones CALL and GOTO proveen solo 11 bits d
                            e direccion para permitir saltar dentro de alguna pagina de 
044C   1303               M                         BCF     STATUS,RP1      ; de memoria de programa de 2K
044D   30A5           00310                                 MOVLW           H'A5'                   ; (1) ciclo de instruccion
044E   00B6           00311                                 MOVWF           T_ADQ                   ; (1)
044F   0BB6           00312 esp_t500_micros DECFSZ  T_ADQ,1         ; (1)           el decremento lo pone en el mismo registro
0450   2C4F           00313                                 GOTO            esp_t500_micros ; (2)                                   
0451   0008           00314                                 RETURN                                  ; (2)           500-4=496;      
                              (3 ciclos)x()=496;    165d=A5h
                      00315 ;#######################################################################################################
                            ########################################
                      00316 t83_micros              BANCO0                                  ;selecciona banco 0
0452   1283               M                         BCF     STATUS,RP0      ; las instrucciones CALL and GOTO proveen solo 11 bits d
                            e direccion para permitir saltar dentro de alguna pagina de 
0453   1303               M                         BCF     STATUS,RP1      ; de memoria de programa de 2K
0454   301A           00317                                 MOVLW           H'1A'                   ; (1) ciclo de instruccion
0455   00B6           00318                                 MOVWF           T_ADQ                   ; (1)
0456   0BB6           00319 esp_83micros    DECFSZ  T_ADQ,1         ; (1)           el decremento lo pone en el mismo registro
0457   2C56           00320                                 GOTO            esp_83micros    ; (2)                                   
0458   0008           00321                                 RETURN                                  ; (2)           83-4=79;        
                              (3 ciclos)x()=26.3333         26d=1Ah
                      00322 ;#######################################################################################################
                            ########################################
                      00323 ;######################SUBRUTINAS DE CONFIGURACION DE REGISTROS Y PERIFERICOS ##########################
                            #########################################################################
0200                  00324                                         ORG             0x200
                      00325 ;------------ subrutina que configura unidades ---------------------------------------------------------
                            ----------------------------------------------------------------------------------------
                      00326 configura_unidades      BANCO0
0200   1283               M                         BCF     STATUS,RP0      ; las instrucciones CALL and GOTO proveen solo 11 bits d
                            e direccion para permitir saltar dentro de alguna pagina de 
0201   1303               M                         BCF     STATUS,RP1      ; de memoria de programa de 2K
                      00327                                         ;---------------------------------------------------------------
                            ------------------------------------------------------------------------------------------------
0202   1103           00328                                         BCF             STATUS,2
0203   3000           00329                                         MOVLW           H'00'
0204   00CB           00330                                         MOVWF           UNI_com
0205   0824           00331                                         MOVF            UNI,0                           ;mueve el regist
                            ro UNI a W
MPASM 03.60 Released                             INTERRUP.ASM   8-23-2007  12:22:44         PAGE 11


LOC  OBJECT CODE     LINE SOURCE TEXT
  VALUE

0206   02CB           00332                                         SUBWF           UNI_com,1               ; resultado en registro 
                            (DECE_com - 0)=
0207   1D03           00333                                         BTFSS           STATUS,2                        ; salta si hay u
                            n 1 en la bandera Z
0208   2A0A           00334                                         GOTO            uni_no_es_cero
0209   2A0D           00335                                         GOTO            si_es_cero_uni                                  
                      00336                                         ;---------------------------------------------------------------
                            ------------------------------------------------------------------------------------------------
020A   0BA4           00337 uni_no_es_cero          DECFSZ  UNI,1
020B   2A15           00338                                         GOTO            sigue_despleg_u
020C   2A11           00339                                         GOTO            despliega_cero_u
                      00340                                         ;---------------------------------------------------------------
                            ------------------------------------------------------------------------------------------------
020D   3009           00341 si_es_cero_uni          MOVLW           H'09'
020E   00A4           00342                                         MOVWF           UNI
020F   226D           00343                                         CALL            desplegar_u_bcd                 ;CALL           
                            desplegar_u_bcd
0210   2A33           00344                                         GOTO            si_sigue_opr
                      00345                                         ;---------------------------------------------------------------
                            ------------------------------------------------------------------------------------------------
0211   3000           00346 despliega_cero_u                MOVLW           H'00'
0212   00A4           00347                                         MOVWF           UNI
0213   226D           00348                                         CALL            desplegar_u_bcd
0214   2A17           00349                                         GOTO            si_sigue_opr_u
                      00350                                         ;---------------------------------------------------------------
                            ------------------------------------------------------------------------------------------------
0215   226D           00351 sigue_despleg_u         CALL            desplegar_u_bcd
0216   2A17           00352                                         GOTO            si_sigue_opr_u
                      00353                                         ;---------------------------------------------------------------
                            ------------------------------------------------------------------------------------------------
0217   2400           00354 si_sigue_opr_u          CALL            tmedio_s
0218   1B86           00355                                         BTFSC           PORTB,7
0219   2A00           00356                                         GOTO            configura_unidades
021A   2A1B           00357                                         GOTO            TERMINA_C_U
                      00358                                         ;---------------------------------------------------------------
                            ------------------------------------------------------------------------------------------------
021B   0008           00359 TERMINA_C_U             RETURN
                      00360 ;#######################################################################################################
                            ############################################################################
                      00361 ;------------ subrutina que configura decenas --------------------------------------------------
                      00362 configura_decenas       BANCO0
021C   1283               M                         BCF     STATUS,RP0      ; las instrucciones CALL and GOTO proveen solo 11 bits d
                            e direccion para permitir saltar dentro de alguna pagina de 
021D   1303               M                         BCF     STATUS,RP1      ; de memoria de programa de 2K
                      00363                                         ;---------------------------------------------------------------
                            ------------------------------------------------------------------------------------------------
021E   1103           00364                                         BCF             STATUS,2
021F   3000           00365                                         MOVLW           H'00'
0220   00B9           00366                                         MOVWF           DECE_com
0221   0825           00367                                         MOVF            DECE,0                          ;mueve el regist
                            ro UNI a W
0222   02B9           00368                                         SUBWF           DECE_com,1              ; resultado en registro 
                            (DECE_com - 0)=
MPASM 03.60 Released                             INTERRUP.ASM   8-23-2007  12:22:44         PAGE 12


LOC  OBJECT CODE     LINE SOURCE TEXT
  VALUE

0223   1D03           00369                                         BTFSS           STATUS,2                        ; salta si hay u
                            n 1 en la bandera Z
0224   2A26           00370                                         GOTO            dece_no_es_cero
0225   2A29           00371                                         GOTO            si_es_cero                                      
                      00372                                         ;---------------------------------------------------------------
                            ------------------------------------------------------------------------------------------------
0226   0BA5           00373 dece_no_es_cero         DECFSZ  DECE,1
0227   2A31           00374                                         GOTO            sigue_despleg
0228   2A2D           00375                                         GOTO            despliega_cero
                      00376                                         ;---------------------------------------------------------------
                            ------------------------------------------------------------------------------------------------
0229   3009           00377 si_es_cero                      MOVLW           H'09'
022A   00A5           00378                                         MOVWF           DECE
022B   2279           00379                                         CALL            desplegar_d_bcd
022C   2A33           00380                                         GOTO            si_sigue_opr
                      00381                                         ;---------------------------------------------------------------
                            ------------------------------------------------------------------------------------------------
022D   3000           00382 despliega_cero          MOVLW           H'00'
022E   00A5           00383                                         MOVWF           DECE
022F   2279           00384                                         CALL            desplegar_d_bcd
0230   2A33           00385                                         GOTO            si_sigue_opr
                      00386                                         ;---------------------------------------------------------------
                            ------------------------------------------------------------------------------------------------
0231   2279           00387 sigue_despleg           CALL            desplegar_d_bcd
0232   2A33           00388                                         GOTO            si_sigue_opr
                      00389                                         ;---------------------------------------------------------------
                            ------------------------------------------------------------------------------------------------
0233   2400           00390 si_sigue_opr                    CALL            tmedio_s
0234   1A85           00391                                         BTFSC           PORTA,5
0235   2A1C           00392                                         GOTO            configura_decenas
0236   2A37           00393                                         GOTO            TERMINA_C_D
                      00394                                         ;---------------------------------------------------------------
                            ------------------------------------------------------------------------------------------------
0237   0008           00395 TERMINA_C_D             RETURN
                      00396 ;#######################################################################################################
                            ############
                      00397 limpia_registros                BANCO0
0238   1283               M                         BCF     STATUS,RP0      ; las instrucciones CALL and GOTO proveen solo 11 bits d
                            e direccion para permitir saltar dentro de alguna pagina de 
0239   1303               M                         BCF     STATUS,RP1      ; de memoria de programa de 2K
023A   0185           00398                                         CLRF            PORTA                                           
                                    ; limpia puerto A
023B   0186           00399                                         CLRF            PORTB                                           
                                    ; limpia puerto B
                      00400                                         ;***************************************************************
                            ************************************************************************************************
023C   01A4           00401                                         CLRF            UNI                             
023D   01A5           00402                                         CLRF            DECE                    
023E   01A6           00403                                         CLRF            SP                              
023F   01A7           00404                                         CLRF            uni_comodin             
0240   01A8           00405                                         CLRF            dece_comodin    
0241   01A9           00406                                         CLRF            STATUS_TEMP     
0242   01AA           00407                                         CLRF            PCLATH_TEMP     
MPASM 03.60 Released                             INTERRUP.ASM   8-23-2007  12:22:44         PAGE 13


LOC  OBJECT CODE     LINE SOURCE TEXT
  VALUE

0243   01AB           00408                                         CLRF            W_TEMP          
                      00409                                         ;***************************************************************
                            ************************************************************************************************
0244   01AC           00410                                         CLRF            BINARIO                 
0245   01AD           00411                                         CLRF            CONTADOR1       
0246   01AE           00412                                         CLRF            CONTADOR2       
0247   01AF           00413                                         CLRF            CONTADOR3       
                      00414                                         ;***************************************************************
                            ************************************************************************************************
0248   01B0           00415                                         CLRF            BCDH                    
0249   01B1           00416                                         CLRF            BCDL                    
024A   01B2           00417                                         CLRF            BCD_TEMP                
024B   01C4           00418                                         CLRF            CUENTA          
024C   01B4           00419                                         CLRF            BIN                             
024D   01B5           00420                                         CLRF            BIN_comodin                                     
                                            
                      00421                                         ;***************************************************************
                            ************************************************************************************************
024E   01B7           00422                                         CLRF            SEIS_CERO               
024F   01B8           00423                                         CLRF            NUEVE_NUEVE
0250   0008           00424                                         RETURN
                      00425 ;#######################################################################################################
                            ###########################################################################
                      00426 configura_oscilador     BANCO1                  ; selecciona Banco 1; Se encuentran registros TRISA y TR
                            ISB
0251   1683               M                         BSF     STATUS,RP0      ; por PCLATH<4:3>
0252   1303               M                         BCF     STATUS,RP1      ; Cuando se hace una instruccion CALL o GOTO, el usuario
                             debe asegurar que los bits seleccionados de la pagina
                      00427                                                                                 ; al reset STATUS=000000
                            00
                      00428                                                                                 ; REGISTRO STATUS =     
                            IRP             RP1             RP0             T0_             PD_             Z               
                      00429                                                                                 ;  RP1 RP0
                      00430                                                                                 ;  0            0       
                                    banco 0
                      00431                                                                                 ;  0            1       
                                    banco 1         RP0=1
                      00432                                                                                 ;  1            0       
                                    banco 2
                      00433                                                                                 ;  1            1       
                                    banco 3
Message[302]: Register in operand not in bank 0.  Ensure that bank bits are correct.
0253   170F           00434                                         BSF     OSCCON,6        ;Pone el oscilador a 4 MHz con el oscila
                            dor interno RC; OSCCON controla varios aspectos de operacion del sistema de reloj; Banco 1
Message[302]: Register in operand not in bank 0.  Ensure that bank bits are correct.
0254   168F           00435                                         BSF     OSCCON,5        ;bit 6-4                110             
                            4 MHZ
                      00436                                                                                 ;al reset inicia con 0's
                             el registro.
0255   0008           00437                                         RETURN
                      00438 ;#######################################################################################################
                            ############################
                      00439 ;##### CONFIGURA LOS PUERTOS  A y B, (A0,A1,A2,A3 = ENTRADAS)  (A4,A5,A6,A7=SALIDAS),  (B0,B1,B2,B3 = EN
MPASM 03.60 Released                             INTERRUP.ASM   8-23-2007  12:22:44         PAGE 14


LOC  OBJECT CODE     LINE SOURCE TEXT
  VALUE

                            TRADAS)  (B4,B5,B6,B7=SALIDAS) ##################
                      00440 configura_puertos       BANCO1                                  ;;Puerto A como salida          0 - sali
                            da;     1 - entrada
0256   1683               M                         BSF     STATUS,RP0      ; por PCLATH<4:3>
0257   1303               M                         BCF     STATUS,RP1      ; Cuando se hace una instruccion CALL o GOTO, el usuario
                             debe asegurar que los bits seleccionados de la pagina
0258   30A0           00441                                 MOVLW           B'10100000'             ; RA7   RA6             RA5     
                                    RA4             RA3             RA2             RA1             RA0
Message[302]: Register in operand not in bank 0.  Ensure that bank bits are correct.
0259   0085           00442                                 MOVWF           TRISA                   ;    1            0             
                              1               0               0                0               0               0    
                      00443                                 ;-----------------------------------------------------------------------
                            ------------------------------------------------------------------------------------------------
025A   3081           00444                                 MOVLW           B'10000001'             ; RB7   RB6             RB5     
                                    RB4             RB3             RB2             RB1             RB0
Message[302]: Register in operand not in bank 0.  Ensure that bank bits are correct.
025B   0086           00445                                 MOVWF           TRISB                   ;    1            0             
                              0               0               0                0               0               1            
                      00446                                 ;-----------------------------------------------------------------------
                            ------------------------------------------------------------------------------------------------
025C   0008           00447                                 RETURN
                      00448 ;########################################### CONFIGURAR INTERRUPCIONES  ################################
                            #######################
                      00449 configura_interrupciones        BANCO1
025D   1683               M                         BSF     STATUS,RP0      ; por PCLATH<4:3>
025E   1303               M                         BCF     STATUS,RP1      ; Cuando se hace una instruccion CALL o GOTO, el usuario
                             debe asegurar que los bits seleccionados de la pagina
                      00450                                                 ;-------------------------------------------------------
                            ------------------------------------------------------------------------------------------------
Message[302]: Register in operand not in bank 0.  Ensure that bank bits are correct.
025F   1301           00451                                                 BCF             OPTION_REG,INTEDG                       
                                    ; activa por flanco de bajada, bit INTEDG
                      00452                                                 ;-----------------------------------------------------  
                            HABILITACION DE INTERRUPCIONES -----------------------------------------------------------------
0260   160B           00453                                                 BSF             INTCON, INTE                            
                                                    ; que sea interrupcion externa por RB0, bit INTE bit 4
0261   178B           00454                                                 BSF             INTCON, GIE                             
                                                    ; habilitamos interrupcion global GIE bit 7
                      00455                                                 ;-------------------------------------------------------
                            ------------------      ; INTCON TAMBIEN ESTA EN BANCO 1
0262   0008           00456                                                 RETURN
                      00457 ;#######################################################################################################
                            ####################################;################################ PARA QUE NO SE PIERDA AQUI
                      00458 ; movemos el registro BCDL al puerto B y el bit0 del registro BCDL al pin1 del puerto A
                      00459 desplegar_bin_bcd       BANCO0
0263   1283               M                         BCF     STATUS,RP0      ; las instrucciones CALL and GOTO proveen solo 11 bits d
                            e direccion para permitir saltar dentro de alguna pagina de 
0264   1303               M                         BCF     STATUS,RP1      ; de memoria de programa de 2K
0265   0831           00460                                         MOVF            BCDL,0          ; mueve el reg BCDL al registro 
                            W
0266   0086           00461                                         MOVWF           PORTB           ; mueve el registro W al PORTB
0267   1C31           00462                                         BTFSS           BCDL,0          ; salta si hay un '1' en el bit0
                             del registro BCDL
MPASM 03.60 Released                             INTERRUP.ASM   8-23-2007  12:22:44         PAGE 15


LOC  OBJECT CODE     LINE SOURCE TEXT
  VALUE

0268   2A6B           00463                                         GOTO            pon_cero        ; salta a etiqueta SIGUE
0269   1705           00464                                         BSF             PORTA,6 ; pon un '1' en el pin1 del PUERTO A
026A   2A6C           00465                                         GOTO            termina
026B   1305           00466 pon_cero                        BCF             PORTA,6 ; pon un '0' en el pin1 del puerto A            
                                                    
026C   0008           00467 termina                         RETURN                                  
                      00468 ;#######################################################################################################
                            ##############################
                      00469 desplegar_u_bcd         BANCO0
026D   1283               M                         BCF     STATUS,RP0      ; las instrucciones CALL and GOTO proveen solo 11 bits d
                            e direccion para permitir saltar dentro de alguna pagina de 
026E   1303               M                         BCF     STATUS,RP1      ; de memoria de programa de 2K
                      00470                                         ;---------------------------------------------------------------
                            ------------------------------------------------------------------------------------------------
026F   30F0           00471                                         MOVLW           B'11110000'
0270   0506           00472                                         ANDWF           PORTB,0
0271   0424           00473                                         IORWF           UNI,0                   ; resultado en W, no alt
                            era UNI
0272   0086           00474                                         MOVWF           PORTB
                      00475                                         ;---------------------------------------------------------------
                            ------------------------------------------------------------------------------------------------
0273   1C24           00476                                         BTFSS           UNI,0           ; salta si hay un '1' en el bit0
                             del registro UNI
0274   2A77           00477                                         GOTO            pon_ceroU       ; salta a etiqueta SIGUE
0275   1705           00478                                         BSF             PORTA,6 ; pon un '1' en el pin1 del PUERTO A
0276   2A78           00479                                         GOTO            terminaU
0277   1305           00480 pon_ceroU                       BCF             PORTA,6 ; pon un '0' en el pin1 del puerto A            
                                                    
0278   0008           00481 terminaU                                RETURN                                  
                      00482 ;#######################################################################################################
                            ################################################################################################
                      00483 desplegar_d_bcd         BANCO0
0279   1283               M                         BCF     STATUS,RP0      ; las instrucciones CALL and GOTO proveen solo 11 bits d
                            e direccion para permitir saltar dentro de alguna pagina de 
027A   1303               M                         BCF     STATUS,RP1      ; de memoria de programa de 2K
027B   0825           00484                                         MOVF            DECE,0                          ; mueve el reg D
                            ECE_com al registro W
027C   00B9           00485                                         MOVWF           DECE_com                        ; mueve W al reg
                            istro DECE_com, que es un registro comodin
                      00486                                         ;---------------------------------------------------------------
                            ------------------------------------------------------------------------------------------------
027D   0DB9           00487                                         RLF             DECE_com,1
027E   0DB9           00488                                         RLF             DECE_com,1
027F   0DB9           00489                                         RLF             DECE_com,1
0280   0DB9           00490                                         RLF             DECE_com,1                      ; 1- lo deja en 
                            el mismo registro.
                      00491                                         ;---------------------------------------------------------------
                            --------------------------------------                  
0281   300F           00492                                         MOVLW           B'00001111'                             ; mueve 
                            la literal al registro W
0282   0506           00493                                         ANDWF           PORTB,0                         ; (PORTB AND W) 
                            ---> resultado en W
0283   04B9           00494                                         IORWF           DECE_com,1                      ; (W OR DECE_com
MPASM 03.60 Released                             INTERRUP.ASM   8-23-2007  12:22:44         PAGE 16


LOC  OBJECT CODE     LINE SOURCE TEXT
  VALUE

                            ) ---> resultado en DECE_com
0284   0839           00495                                         MOVF            DECE_com,0      
0285   0086           00496                                         MOVWF           PORTB                                   ; MUEVE 
                            EL REGISTRO YA enmascarado al puerto B
                      00497                                         ;---------------------------------------------------------------
                            ------------------------------------------------------------------------------------------------
0286   1FB9           00498                                         BTFSS           DECE_com,7
0287   2A89           00499                                         GOTO            APAGA
0288   2A8B           00500                                         GOTO            ENCIENDE
                      00501                                         ;---------------------------------------------------------------
                            ------------------------------------------------------------------------------------------------
0289   1005           00502 APAGA                           BCF             PORTA,0
028A   2A8C           00503                                         GOTO            fin_desplegar_d_bcd
028B   1405           00504 ENCIENDE                        BSF             PORTA,0
                      00505                                         ;---------------------------------------------------------------
                            ------------------------------------------------------------------------------------------------
028C   0008           00506 fin_desplegar_d_bcd     RETURN
                      00507                                         ;----------------------------------------;----------------------
                            ------------------------------------------------------------------------------------------------
                      00508 ;#######################################################################################################
                            ###################
                      00509 ;--------------- subrutina para convertir de BCD a BINARIO ----------------------------------------
028D   0825           00510 BCD_BINARIO     MOVF            DECE,0                          ; mueve el contenido de DECE al registro
                             W
028E   00B9           00511                                 MOVWF           DECE_com                ; mueve W al registro decenas co
                            modin                                   
028F   0DB9           00512                                 RLF             DECE_com,1              ; rota a la izq. el registo dece
                            _comodin y el resultado ponlo ahi mismo
0290   0DB9           00513                                 RLF             DECE_com,1              ; rota a la izq. el registo dece
                            _comodin y el resultado
0291   0839           00514                                 MOVF                    DECE_com,0              ; mueve dece_comodin al 
                            registro W
0292   07A5           00515                                 ADDWF           DECE,1                          ; suma W+DECE, el result
                            ado almacenalo en DECE
0293   0D25           00516                                 RLF             DECE,0                          ; rota a la izq. el regi
                            sto, el resultado ponlo en W
0294   0724           00517                                 ADDWF           UNI,0                           ; suma W+UNI, el resulta
                            do almacenalo en W
0295   00CC           00518                                 MOVWF           TEMPERATURA_SP  ; mueve W al registro TEMPERATURA_SP
0296   0008           00519                                 RETURN                                          ; regresa de la Subrutin
                            a
                      00520 ;#######################################################################################################
                            ##########
                      00521                                         END
MPASM 03.60 Released                             INTERRUP.ASM   8-23-2007  12:22:44         PAGE 17


SYMBOL TABLE
  LABEL                             VALUE 

ACCION_out                        00000122
ADCON0                            0000001F
ADCON1                            0000009F
ADCS0                             00000006
ADCS1                             00000007
ADCS2                             00000006
ADDEN                             00000003
ADFM                              00000007
ADIE                              00000006
ADIF                              00000006
ADON                              00000000
ADRESH                            0000001E
ADRESL                            0000009E
AGUANTA_un_ms                     00000432
AGUANTAretraso50ms                0000041C
ANSEL                             0000009B
APAGA                             00000289
BANCO0                            
BANCO1                            
BANCO2                            
BANCO3                            
BCDH                              00000030
BCDL                              00000031
BCD_BINARIO                       0000028D
BCD_TEMP                          00000032
BF                                00000000
BIN                               00000034
BINARIO                           0000002C
BIN_comodin                       00000035
BRGH                              00000002
C                                 00000000
C1INV                             00000004
C1OUT                             00000006
C2INV                             00000005
C2OUT                             00000007
CCP1CON                           00000017
CCP1IE                            00000002
CCP1IF                            00000002
CCP1M0                            00000000
CCP1M1                            00000001
CCP1M2                            00000002
CCP1M3                            00000003
CCP1X                             00000005
CCP1Y                             00000004
CCPR1H                            00000016
CCPR1L                            00000015
CHS0                              00000003
CHS1                              00000004
CHS2                              00000005
CIS                               00000003
CKE                               00000006
CKP                               00000004
CM0                               00000000
MPASM 03.60 Released                             INTERRUP.ASM   8-23-2007  12:22:44         PAGE 18


SYMBOL TABLE
  LABEL                             VALUE 

CM1                               00000001
CM2                               00000002
CMCON                             0000009C
CMIE                              00000006
CMIF                              00000006
COM                               00000042
CONTADOR1                         0000002D
CONTADOR2                         0000002E
CONTADOR3                         0000002F
CONTADOR_D_PULS                   00000041
CREN                              00000004
CSRC                              00000007
CUENTA                            00000044
CUENTA100                         00000033
CUENTA100_com                     00000043
CUENTASP1                         00000045
CUENTASP2                         00000046
CUENTASP3                         00000047
CUENTASP4                         00000048
CVR0                              00000000
CVR1                              00000001
CVR2                              00000002
CVR3                              00000003
CVRCON                            0000009D
CVREN                             00000007
CVROE                             00000006
CVRR                              00000005
D                                 00000005
DATA_ADDRESS                      00000005
DC                                00000001
DECE                              00000025
DECE_com                          00000039
DEC_CUENTA                        00000029
D_A                               00000005
EEADR                             0000010D
EEADRH                            0000010F
EECON1                            0000018C
EECON2                            0000018D
EEDATA                            0000010C
EEDATH                            0000010E
EEIE                              00000004
EEIF                              00000004
EEPGD                             00000007
ENCIENDE                          0000028B
F                                 00000001
FERR                              00000002
FINALIZA                          0000002D
FREE                              00000004
FSR                               00000004
GIE                               00000007
GO                                00000002
GO_DONE                           00000002
HAZ1                              0000001D
MPASM 03.60 Released                             INTERRUP.ASM   8-23-2007  12:22:44         PAGE 19


SYMBOL TABLE
  LABEL                             VALUE 

I2C_DATA                          00000005
I2C_READ                          00000002
I2C_START                         00000003
I2C_STOP                          00000004
INDF                              00000000
INICIA_SP                         00000104
INICIO                            00000005
INICIO_PRINC                      00000011
INTCON                            0000000B
INTE                              00000004
INTEDG                            00000006
INTF                              00000001
IOFS                              00000002
IRCF0                             00000004
IRCF1                             00000005
IRCF2                             00000006
IRP                               00000007
NOT_A                             00000005
NOT_ADDRESS                       00000005
NOT_BO                            00000000
NOT_BOR                           00000000
NOT_DONE                          00000002
NOT_PD                            00000003
NOT_POR                           00000001
NOT_RBPU                          00000007
NOT_RC8                           00000006
NOT_T1SYNC                        00000002
NOT_TO                            00000004
NOT_TX8                           00000006
NOT_W                             00000002
NOT_WRITE                         00000002
NUEVE_NUEVE                       00000038
OERR                              00000001
OPTION_REG                        00000081
OSCCON                            0000008F
OSCTUNE                           00000090
OSFIE                             00000007
OSFIF                             00000007
OSTS                              00000003
OTRA_VEZ                          0000010B
P                                 00000004
PARPADEA                          00000126
PCL                               00000002
PCLATH                            0000000A
PCLATH_TEMP                       0000002A
PCON                              0000008E
PEIE                              00000006
PIE1                              0000008C
PIE2                              0000008D
PIR1                              0000000C
PIR2                              0000000D
PORTA                             00000005
PORTA_com                         00000049
MPASM 03.60 Released                             INTERRUP.ASM   8-23-2007  12:22:44         PAGE 20


SYMBOL TABLE
  LABEL                             VALUE 

PORTB                             00000006
PORTB_com                         0000004A
PR2                               00000092
PRECARGA                          0000041A
PRECARGA_un_ms                    00000430
PS0                               00000000
PS1                               00000001
PS2                               00000002
PSA                               00000003
QUITA_TIEMPO                      0000011C
R                                 00000002
RBIE                              00000003
RBIF                              00000000
RC8_9                             00000006
RC9                               00000006
RCD8                              00000000
RCIE                              00000005
RCIF                              00000005
RCREG                             0000001A
RCSTA                             00000018
RD                                00000000
READ_WRITE                        00000002
REG_REBOTE1                       0000003E
REG_REBOTE2                       0000003F
RETARDO_PULSO                     00000040
RETARDO_PULSO_com                 00000042
REVISA_CRUCEx01                   00000018
REVISA_D                          00000117
REVISA_U                          00000111
RP0                               00000005
RP1                               00000006
RX9                               00000006
RX9D                              00000000
R_W                               00000002
S                                 00000003
SALIR_AOTRO                       0000002C
SCS0                              00000000
SCS1                              00000001
SEIS_CERO                         00000037
SIGUEPROG                         00000131
SMP                               00000007
SP                                00000026
SPBRG                             00000099
SPEN                              00000007
SP_INTERRUPT                      00000100
SREN                              00000005
SSPADD                            00000093
SSPBUF                            00000013
SSPCON                            00000014
SSPEN                             00000005
SSPIE                             00000003
SSPIF                             00000003
SSPM0                             00000000
MPASM 03.60 Released                             INTERRUP.ASM   8-23-2007  12:22:44         PAGE 21


SYMBOL TABLE
  LABEL                             VALUE 

SSPM1                             00000001
SSPM2                             00000002
SSPM3                             00000003
SSPOV                             00000006
SSPSTAT                           00000094
STATUS                            00000003
STATUS_TEMP                       00000029
SWDTE                             00000000
SWDTEN                            00000000
SYNC                              00000004
T0CS                              00000005
T0IE                              00000005
T0IF                              00000002
T0SE                              00000004
T1CKPS0                           00000004
T1CKPS1                           00000005
T1CON                             00000010
T1INSYNC                          00000002
T1OSCEN                           00000003
T1RUN                             00000006
T2CKPS0                           00000000
T2CKPS1                           00000001
T2CON                             00000012
TEMPERATURA_SP                    0000004C
TERMINA_C_D                       00000237
TERMINA_C_U                       0000021B
TMR0                              00000001
TMR0IE                            00000005
TMR0IF                            00000002
TMR1CS                            00000001
TMR1H                             0000000F
TMR1IE                            00000000
TMR1IF                            00000000
TMR1L                             0000000E
TMR1ON                            00000000
TMR2                              00000011
TMR2IE                            00000001
TMR2IF                            00000001
TMR2ON                            00000002
TOUTPS0                           00000003
TOUTPS1                           00000004
TOUTPS2                           00000005
TOUTPS3                           00000006
TRISA                             00000085
TRISB                             00000086
TRMT                              00000001
TUN0                              00000000
TUN1                              00000001
TUN2                              00000002
TUN3                              00000003
TUN4                              00000004
TUN5                              00000005
TX8_9                             00000006
MPASM 03.60 Released                             INTERRUP.ASM   8-23-2007  12:22:44         PAGE 22


SYMBOL TABLE
  LABEL                             VALUE 

TX9                               00000006
TX9D                              00000000
TXD8                              00000000
TXEN                              00000005
TXIE                              00000004
TXIF                              00000004
TXREG                             00000019
TXSTA                             00000098
T_ADQ                             00000036
UA                                00000001
UNI                               00000024
UNI_com                           0000004B
VCFG0                             00000004
VCFG1                             00000005
VECES_MISMO_RET                   00000043
W                                 00000000
WCOL                              00000007
WDTCON                            00000105
WDTPS0                            00000001
WDTPS1                            00000002
WDTPS2                            00000003
WDTPS3                            00000004
WR                                00000001
WREN                              00000002
WRERR                             00000003
W_TEMP                            0000002B
Z                                 00000002
_BODEN_OFF                        00003FBF
_BODEN_ON                         00003FFF
_CCP1_RB0                         00003FFF
_CCP1_RB3                         00002FFF
_CONFIG1                          00002007
_CONFIG2                          00002008
_CPD_OFF                          00003FFF
_CPD_ON                           00003EFF
_CP_ALL                           00001FFF
_CP_OFF                           00003FFF
_DEBUG_OFF                        00003FFF
_DEBUG_ON                         000037FF
_EXTCLK                           00003FEF
_EXTRC_CLKOUT                     00003FFF
_EXTRC_IO                         00003FFE
_FCMEN_OFF                        00003FFE
_FCMEN_ON                         00003FFF
_HS_OSC                           00003FEE
_IESO_OFF                         00003FFD
_IESO_ON                          00003FFF
_INTRC_CLKOUT                     00003FFD
_INTRC_IO                         00003FFC
_LP_OSC                           00003FEC
_LVP_OFF                          00003F7F
_LVP_ON                           00003FFF
_MCLR_OFF                         00003FDF
MPASM 03.60 Released                             INTERRUP.ASM   8-23-2007  12:22:44         PAGE 23


SYMBOL TABLE
  LABEL                             VALUE 

_MCLR_ON                          00003FFF
_PWRTE_OFF                        00003FFF
_PWRTE_ON                         00003FF7
_WDT_OFF                          00003FFB
_WDT_ON                           00003FFF
_WRT_ENABLE_1024                  00003BFF
_WRT_ENABLE_512                   00003DFF
_WRT_ENABLE_OFF                   00003FFF
_XT_OSC                           00003FED
__16F88                           00000001
configura_decenas                 0000021C
configura_interrupciones          0000025D
configura_oscilador               00000251
configura_puertos                 00000256
configura_unidades                00000200
dece_comodin                      00000028
dece_no_es_cero                   00000226
desplegar_bin_bcd                 00000263
desplegar_d_bcd                   00000279
desplegar_u_bcd                   0000026D
despliega_cero                    0000022D
despliega_cero_u                  00000211
esp_100micros                     0000043A
esp_83micros                      00000456
esp_t250_micros                   00000441
esp_t500_micros                   0000044F
esp_t600_micros                   00000448
esp_t_adq                         00000424
fin_desplegar_d_bcd               0000028C
limpia_registros                  00000238
pon_cero                          0000026B
pon_ceroU                         00000277
si_es_cero                        00000229
si_es_cero_uni                    0000020D
si_sigue_opr                      00000233
si_sigue_opr_u                    00000217
sigue_despleg                     00000231
sigue_despleg_u                   00000215
t100_micros                       00000436
t1_ms                             00000427
t250_micros                       0000043D
t250_ms                           0000040B
t500_micros                       0000044B
t50msTMR0                         00000411
t600_micros                       00000444
t83_micros                        00000452
t_20micros                        00000420
t_adq_20micros                    00000420
termina                           0000026C
terminaU                          00000278
tmedio_s                          00000400
uni_comodin                       00000027
uni_no_es_cero                    0000020A
MPASM 03.60 Released                             INTERRUP.ASM   8-23-2007  12:22:44         PAGE 24


MEMORY USAGE MAP ('X' = Used,  '-' = Unused)


0000 : X---XXXXXXXXXXXX XXXXXXXXXXXXXXXX XXXXXXXXXXXXXX-- ----------------
0100 : XXXXXXXXXXXXXXXX XXXXXXXXXXXXXXXX XXXXXXXXXXXXXXXX XXXXXXX---------
0200 : XXXXXXXXXXXXXXXX XXXXXXXXXXXXXXXX XXXXXXXXXXXXXXXX XXXXXXXXXXXXXXXX
0240 : XXXXXXXXXXXXXXXX XXXXXXXXXXXXXXXX XXXXXXXXXXXXXXXX XXXXXXXXXXXXXXXX
0280 : XXXXXXXXXXXXXXXX XXXXXXX--------- ---------------- ----------------
0400 : XXXXXXXXXXXXXXXX XXXXXXXXXXXXXXXX XXXXXXXXXXXXXXXX XXXXXXXXXXXXXXXX
0440 : XXXXXXXXXXXXXXXX XXXXXXXXX------- ---------------- ----------------

All other memory blocks unused.

Program Memory Words Used:   338
Program Memory Words Free:  3758


Errors   :     0
Warnings :     0 reported,     0 suppressed
Messages :    16 reported,     0 suppressed

