MPASM 03.60 Released                         INTERRUP_SP2.ASM   8-18-2007  16:45:26         PAGE  1


LOC  OBJECT CODE     LINE SOURCE TEXT
  VALUE

                      00001 ;***************************************************************
                      00002                         list    p=16F88
                      00003                         #include        <p16F88.inc>
                      00001         LIST
                      00002 ; P16F88.INC  Standard Header File, Version 1.00    Microchip Technology, Inc.
                      00401         LIST
                      00004 ;***************************************************************
                      00005 BANCO0          MACRO                           ; todos los 16F88 son capaces de direccionar bloque un b
                            loque de 8K continuos de palabra de memoria de programa
                      00006                         BCF     STATUS,RP0      ; las instrucciones CALL and GOTO proveen solo 11 bits d
                            e direccion para permitir saltar dentro de alguna pagina de 
                      00007                         BCF     STATUS,RP1      ; de memoria de programa de 2K
                      00008                         ENDM                            ; PCL tiene 11 bits para direccionar la memoria 
                            de programa, 2^11 = 2048 
                      00009 BANCO1          MACRO                           ; Cuando se hace una instruccion CALL o GOTO, los dos bi
                            ts mas signifitivos de la direccion son entregados 
                      00010                         BSF     STATUS,RP0      ; por PCLATH<4:3>
                      00011                         BCF     STATUS,RP1      ; Cuando se hace una instruccion CALL o GOTO, el usuario
                             debe asegurar que los bits seleccionados de la pagina
                      00012                         ENDM                            ; son programados, asi la pagina de la memoria d
                            e programa deseada es direccionada.
                      00013 BANCO2          MACRO                           ; si un retorno de una instruccion CALL (o interrupcion 
                            ) es ejecutada. Los 13 bits del PC son POPPED OFF
                      00014                         BCF     STATUS,RP0      ; de la pila. Por lo tanto, la manipulacion de los bits 
                            PCLATH<4:3> no son requeridas por la instruccion RETURN
                      00015                         BSF     STATUS,RP1      ; (el cual POPS la direccion desde la pila)
                      00016                         ENDM                                    
                      00017 BANCO3          MACRO                           ; OJO: el contenido del registro PCLATH se mantiene sin 
                            cambios despues de una instruccion RETURN, RETFIE
                      00018                         BSF     STATUS,RP0      ; ejecutada. El usuario debe reescribir el contenido de 
                            el registro PCLATH para alguna subsecuente llamada
                      00019                         BSF     STATUS,RP1      ; de subrutina o instruccion GOTO.
                      00020                         ENDM
                      00021 ;****************************************************************
                      00022                                 ; PC de 13 bits                                                 ; PC    
                            LATH     | 4 | 3 |              PCL     |7|6|5|4|3|2|1|0|       11 bits del PROGRAM COUNTER (PC)
                      00023                                 ; MEMORIA                       PAGINA 0                        ----> 00
                            05 a la 07FF            05     a la 2047
                      00024         ; 4K x 14               ; DE PROGRAMA           PAGINA 1                        ----> 0800 a la 
                            0FFF            2048 a la 4095                          2048 a la ( 2^11 = 2048 ) x 2 = 4096 pal
                      00025                                 ; MEMORIA
                      00026         ;4K x 14                ; DE DATOS                                      CATALOGADA EN 4 BANCOS  
                            -----> 00 a la 1FF                                      
                      00027         ;14 es la amplitud del bus de la memoria de programa
                      00028 ;****************************************************************
  00000024            00029 UNI                             equ     24h     ; RECORDATORIO DE EN DONDE SE ENCUENGRAN ALGUNOS REGISTR
                            OS 
  00000025            00030 DECE                    equ     25h     ;       ADRESH  1Eh             banco 0
  00000026            00031 SP                              equ     26h     ;       ADRESL  9Eh             banco 1
  00000027            00032 uni_comodin             equ     27h     ;       ANSEL           9Bh             banco 1
  00000028            00033 dece_comodin    equ     28h     ;       ADCON0  1Fh             banco 0
  00000029            00034 STATUS_TEMP     equ 29h ;       ADCON1  9Fh             banco 1
  0000002A            00035 PCLATH_TEMP     equ 2Ah ;****************************************************************
MPASM 03.60 Released                         INTERRUP_SP2.ASM   8-18-2007  16:45:26         PAGE  2


LOC  OBJECT CODE     LINE SOURCE TEXT
  VALUE

  0000002B            00036 W_TEMP          equ     2Bh
                      00037 ;**************************************************
  0000002C            00038 BINARIO                 equ     2Ch
  0000002D            00039 CONTADOR1       equ 2Dh
  0000002E            00040 CONTADOR2       equ 2Eh
  0000002F            00041 CONTADOR3       equ 2Fh
                      00042 ;********************** 
  00000030            00043 BCDH                    equ 30h
  00000031            00044 BCDL                    equ 31h
  00000032            00045 BCD_TEMP                equ 32h
                      00046 
  00000034            00047 BIN                             equ 34h
  00000035            00048 BIN_comodin             equ 35h
  00000036            00049 T_ADQ                   equ 36h
                      00050 ;*************************************************
  00000037            00051 SEIS_CERO               equ     37h
  00000038            00052 NUEVE_NUEVE     equ  38h
                      00053 ;***************************************************************
  00000039            00054 DECE_com                equ     39h
                      00055 ;CUENTASP1      equ 3Ah
                      00056 ;CUENTASP2      equ 3Bh
                      00057 ;CUENTASP3      equ 3Ch
                      00058 ;CUENTASP4      equ 3Dh
  0000003E            00059 REG_REBOTE1     equ 3Eh
  0000003F            00060 REG_REBOTE2     equ     3Fh
  00000040            00061 RETARDO_PULSO           equ     40h
  00000042            00062 RETARDO_PULSO_com       equ 42h
  00000043            00063 VECES_MISMO_RET         equ 43h
  00000044            00064 CUENTA                          equ 44h
  00000033            00065 CUENTA100                               equ 33h
  00000041            00066 CONTADOR_D_PULS equ 41h
  00000042            00067 COM                                     equ 42h   
  00000043            00068 CUENTA100_com           equ 43h
                      00069 
  00000045            00070 CUENTASP1       equ 45h
  00000046            00071 CUENTASP2       equ 46h
  00000047            00072 CUENTASP3       equ 47h
  00000048            00073 CUENTASP4       equ 48h
  00000049            00074 PORTA_com               equ     49h
  0000004A            00075 PORTB_com               equ     4Ah
  0000004B            00076 UNI_com         equ     4Bh
                      00077 ;------------------------------------
  0000004C            00078 BINARIO_SP              equ     4Ch
  0000004D            00079 DATO_VELOC      equ     4Dh
                      00080 ;#######################################################################################################
                            ############################
0000                  00081                         ORG             0x00
0000   2805           00082                         GOTO            INICIO
0004                  00083                         ORG             0x04
0004   2900           00084                         GOTO            SP_INTERRUPT
                      00085 ;#######################################################################################################
                            ############################
0005                  00086                         ORG             0x05
MPASM 03.60 Released                         INTERRUP_SP2.ASM   8-18-2007  16:45:26         PAGE  3


LOC  OBJECT CODE     LINE SOURCE TEXT
  VALUE

0005   2238           00087 INICIO          CALL            limpia_registros
0006   2251           00088                         CALL            configura_oscilador
                      00089                         ;CALL           configura_TMR0
                      00090                         ;CALL           configura_comparadores  ; un comparador independiente
0007   2256           00091                         CALL            configura_puertos
                      00092                         ;CALL           configura_convertidor
0008   225D           00093                         CALL            configura_interrupciones
                      00094                         ;----------  PROGRAMA PRINCIPAL -  ---------------------------------------------
                            ----------------------------
0009                  00095 INICIO_1                
                      00096                                         
                      00097 
                      00098 ;{{{{{{{{{{{{{{{{{{{{{{{{{{{{{{{{{{{{{{{{{{{{{{{{{{{{{{{{{{{{{{{{{{{{{{{{{{{{{{{{{{  SUBRUTINA DE INTERR
                            UPCION }}}}}}}}}}}}}}}}}}}}}}}}}}}}}}}}}}}}}}}}}}}}}}}}}}}}}}}}}}}}}}}}}}}}}}}}}}}}}}}}}}}}}}}}}
0100                  00099                                 ORG             0x100
0100   00AB           00100 SP_INTERRUPT    MOVWF   W_TEMP          ;Copy W to TEMP register                                        
                                                    ;codigo propuesto por hoja de especificaciones
0101   0E03           00101                                 SWAPF           STATUS,0                ;Swap status to be saved into W 
                                                                            ;codigo propuesto por hoja de especificaciones
0102   0183           00102                                 CLRF            STATUS          ;bank 0, regardless of current bank, Cle
                            ars IRP,RP1,RP0 ;codigo propuesto por hoja de especificaciones
0103   00A9           00103                                 MOVWF   STATUS_TEMP     ;Save status to bank zero STATUS_TEMP register  
                                            ;codigo propuesto por hoja de especificaciones
                      00104                                 ;MOVF           PCL,0                   ;Only required if using page 1  
                                                                            ;codigo propuesto por hoja de especificaciones
                      00105                                 ;MOVWF  PCLATH_TEMP     ;Save PCLATH into W                             
                                                                    ;codigo propuesto por hoja de especificaciones
                      00106                                 ;CLRF           PCL                     ;Page zero, regardless of curren
                            t page                                  ;codigo propuesto por hoja de especificaciones
                      00107                                 ; ================================================
0104   01CA           00108 INICIA_SP               CLRF            PORTB_com
0105   1305           00109                                 BCF             PORTA,6
0106   1349           00110                                 BCF             PORTA_com,6
0107   3009           00111                                 MOVLW           H'09'
0108   00A4           00112                                 MOVWF           UNI
0109   00A5           00113                                 MOVWF           DECE
                      00114                                 ;-----------------------------------------------------------------------
                            ------------------------------------------------------------------------------------------------
010A   2263           00115                                 CALL            desplegar_u_bcd
010B   2270           00116                                 CALL            desplegar_d_bcd
                      00117                                 ;------------------------
010C   2931           00118                                 GOTO            HASTAELFINAL
                      00119                                 ;-----------------------------------------------------------------------
                            ------------------------------------------------------------------------------------------------
010D   30FF           00120 OTRA_VEZ                MOVLW           H'FF'                                           ;(1)
010E   00C5           00121                                 MOVWF           CUENTASP1                               ;(1)
010F   30FF           00122                                 MOVLW           H'FF'                                           ;(1)
0110   00C6           00123                                 MOVWF           CUENTASP2                               ;(1)
0111   3009           00124                                 MOVLW           H'09'                                           ;(1)    
                            ;carga un  decimal
0112   00C7           00125                                 MOVWF           CUENTASP3                               ;(1)            
                            255x255x15x1 micro sec = 
                      00126                                 ;-----------------------------------------------------------------------
MPASM 03.60 Released                         INTERRUP_SP2.ASM   8-18-2007  16:45:26         PAGE  4


LOC  OBJECT CODE     LINE SOURCE TEXT
  VALUE

                            ------------------------------------------------------------------------------------------------
0113   2931           00127                                 GOTO            HASTAELFINAL
                      00128                                 ;-----------------------------------------------------------------------
                            ----------------------------------------------------------------------------
0114   1C05           00129 REVISA_U                BTFSS           PORTA,0                         ;(1)
0115   2919           00130                                 GOTO            REVISA_D                                ;(2)
                      00131 
0116   240B           00132                                 CALL            t250_ms                                 ; REBOTE
0117   2200           00133                                 CALL            configura_unidades                      
0118   290D           00134                                 GOTO            OTRA_VEZ
                      00135                                 
0119   1E85           00136 REVISA_D                BTFSS           PORTA,5                         ;(1)
011A   291E           00137                                 GOTO            QUITA_TIEMPO                    ;(2)                    
                            ; 9 ciclos de instruccion, 
                      00138 
011B   240B           00139                                 CALL            t250_ms                                 ; REBOTE
011C   221C           00140                                 CALL            configura_decenas
011D   290D           00141                                 GOTO            OTRA_VEZ
                      00142                                 
011E   0BC5           00143 QUITA_TIEMPO    DECFSZ  CUENTASP1,1                     ;(1)
011F   2914           00144                                 GOTO            REVISA_U                                ;(2)
                      00145                                 ;-----------------------------------------------------------------------
                            ------------------------------------------------------------------------------------------------
0120   0BC6           00146                                 DECFSZ  CUENTASP2,1                     ;(1)
0121   2914           00147                                 GOTO            REVISA_U                                ;(2)
0122   0BC7           00148                                 DECFSZ  CUENTASP3,1                     ;(1)
0123   2914           00149                                 GOTO            REVISA_U                                ;(2)
                      00150                                 ;-----------------------------------------------------------------------
                            ------------------------------------------------------------------------------------------------
                      00151 ACCION_out              BANCO0
0124   1283               M                         BCF     STATUS,RP0      ; las instrucciones CALL and GOTO proveen solo 11 bits d
                            e direccion para permitir saltar dentro de alguna pagina de 
0125   1303               M                         BCF     STATUS,RP1      ; de memoria de programa de 2K
0126   3006           00152                                 MOVLW           H'06'                   ; PARA DESPLEGAR 6 VECES EL NUME
                            RO ESTABLECIDO 
0127   00C5           00153                                 MOVWF           CUENTASP1       ;
                      00154                                 ;-----------------------------------------------------------------------
                            ------------------------------------------------------------------------------------------------
0128   2263           00155 CIRCULOSP               CALL            desplegar_u_bcd  ;despliega UNI
0129   2270           00156                                 CALL            desplegar_d_bcd ; despliega DECE
012A   2400           00157                                 CALL            tmedio_s                ; RETARDO DE MEDIO SEGUNDO
012B   30FF           00158                                 MOVLW           H'FF'                   ; despliega NADA 
012C   0086           00159                                 MOVWF           PORTB                   ; despliega NADA 
012D   1705           00160                                 BSF             PORTA,6         ; despliega NADA 
012E   2400           00161                                 CALL            tmedio_s        ; RETARDO DE MEDIO SEGUNDO
012F   0BC5           00162                                 DECFSZ  CUENTASP1,1     ;                       
0130   2928           00163                                 GOTO            CIRCULOSP
                      00164                                 ;-----------------------------------------------------------------------
                            --------------------------
0131   227E           00165 HASTAELFINAL    CALL            BCD_BINARIO             ; llama a la subrutina de conversion de BCD A BI
                            NARIO
                      00166                                 ;-----------------------------------------------------------------------
                            ----------------------------
MPASM 03.60 Released                         INTERRUP_SP2.ASM   8-18-2007  16:45:26         PAGE  5


LOC  OBJECT CODE     LINE SOURCE TEXT
  VALUE

                      00167                                 ; ========== recuperacion de reg import =============
                      00168                                 ;MOVF           PCLATH_TEMP,0           ;Restore PCLATH                 
                                                    ;codigo propuesto por hoja de especificaciones
                      00169                                 ;MOVWF  PCL                                     ;Move W into PCLATH     
                                                            ;codigo propuesto por hoja de especificaciones
0132   0E29           00170 SIGUEPROG               SWAPF           STATUS_TEMP,0           ;Swap STATUS_TEMP register into W       
                            ;codigo propuesto por hoja de especificaciones
                      00171                                                                                                         
                            ;(sets bank to original state)                                  ;codigo propuesto por hoja de es
0133   0083           00172                                 MOVWF   STATUS                          ;Move W into STATUS register    
                                            ;codigo propuesto por hoja de especificaciones
0134   0EAB           00173                                 SWAPF           W_TEMP,1                                ;Swap W_TEMP    
                                                                    ;codigo propuesto por hoja de especificaciones
0135   0E2B           00174                                 SWAPF           W_TEMP,0                                ;Swap W_TEMP int
                            o W                             ;codigo propuesto por hoja de especificaciones
                      00175                                 ;==============================================
0136   108B           00176                                 BCF             INTCON,1                                ;limpia bandera 
                            de interrupcion RB0                                             
0137   0009           00177                                 RETFIE                                                          ;regresa
                             de la interrupcion
                      00178 ;}}}}}}}}}}}}}}}}}}}}}}}}}}}}}}}}}}}}}}}}}}}}}}}}}}}}}}}}}}}}}}}}}}}}}}}}}} TERMINA SUBRUTINA DE INTERRU
                            PCION }}}}}}}}}}}}}}}}}}}}}}}}}}}}}}}}}}}}}}}}}}}}}}}}}}}}}}}}}}}}}}}}}}}}}}}}}}}}}}}}}}}}}}}}}}
                      00179 
                      00180 ;#############SUBRUTINAS DE RETRASO DE TIEMPO###########################################################
                            #######################################
0400                  00181                                                 ORG             0x400                           ; 1024
                      00182 
                      00183 ;#######################################################################################################
                            ############################################
                      00184 
                      00185 ;#######################################################################################################
                            ############
0400   2411           00186 tmedio_s                CALL            t50msTMR0
0401   2411           00187                                 CALL            t50msTMR0                       ;100 ms
0402   2411           00188                                 CALL            t50msTMR0
0403   2411           00189                                 CALL            t50msTMR0                       ;200 ms
0404   2411           00190                                 CALL            t50msTMR0
0405   2411           00191                                 CALL            t50msTMR0                       ; 300 ms
0406   2411           00192                                 CALL            t50msTMR0
0407   2411           00193                                 CALL            t50msTMR0                       ; 400 ms 
0408   2411           00194                                 CALL            t50msTMR0
0409   2411           00195                                 CALL            t50msTMR0                       ; 500 ms
040A   0008           00196                                 RETURN
                      00197 ;#######################################################################################################
                            #################
040B   2411           00198 t250_ms                 CALL            t50msTMR0
040C   2411           00199                                 CALL            t50msTMR0                       ;100 ms
040D   2411           00200                                 CALL            t50msTMR0
040E   2411           00201                                 CALL            t50msTMR0                       ;200 ms
040F   2411           00202                                 CALL            t50msTMR0                       ;250 ms
0410   0008           00203                                 RETURN
                      00204 ;#######################################################################################################
                            ##############################
MPASM 03.60 Released                         INTERRUP_SP2.ASM   8-18-2007  16:45:26         PAGE  6


LOC  OBJECT CODE     LINE SOURCE TEXT
  VALUE

                      00205 t50msTMR0                               BANCO1
0411   1683               M                         BSF     STATUS,RP0      ; por PCLATH<4:3>
0412   1303               M                         BCF     STATUS,RP1      ; Cuando se hace una instruccion CALL o GOTO, el usuario
                             debe asegurar que los bits seleccionados de la pagina
Message[302]: Register in operand not in bank 0.  Ensure that bank bits are correct.
0413   1281           00206                                                 BCF             OPTION_REG,5            ; 0 = Internal i
                            nstruction cycle clock (CLKO)   |
Message[302]: Register in operand not in bank 0.  Ensure that bank bits are correct.
0414   1181           00207                                                 BCF             OPTION_REG,3            ; 0= pre scaler 
                            asignado al TMR0                        |       
                      00208                                                 ;-------------------------------------------------------
                            ------------------------------------------------------------------------------------------------
Message[302]: Register in operand not in bank 0.  Ensure that bank bits are correct.
0415   1501           00209                                                 BSF             OPTION_REG,2            ; PS<2:0>: Presc
                            aler Rate Select bits           | QUITAR contar estos microsegundos
Message[302]: Register in operand not in bank 0.  Ensure that bank bits are correct.
0416   1481           00210                                                 BSF             OPTION_REG,1            ; 111           
                            1:256                                           | en el retardo
Message[302]: Register in operand not in bank 0.  Ensure that bank bits are correct.
0417   1401           00211                                                 BSF             OPTION_REG,0            ; preescalador a
                             256                                            |
                      00212                                                 ;-------------------------------------------------------
                            ------------------------------------------------------------------------------------------------
                      00213                                                 BANCO0
0418   1283               M                         BCF     STATUS,RP0      ; las instrucciones CALL and GOTO proveen solo 11 bits d
                            e direccion para permitir saltar dentro de alguna pagina de 
0419   1303               M                         BCF     STATUS,RP1      ; de memoria de programa de 2K
041A   303C           00214 PRECARGA                                MOVLW            H'3C'                  ; 50ms -->
041B   0081           00215                                                 MOVWF           TMR0                    ;       TMR0 =  
                            [255 - {(fxt)(temporizacion deseada)}/(4*divisor de frecuencia)]
041C   1D0B           00216 AGUANTAretraso50ms      BTFSS           INTCON,T0IF
041D   2C1C           00217                                                 GOTO            AGUANTAretraso50ms
041E   110B           00218                                                 BCF             INTCON,T0IF             ; limpiar bander
                            a 
041F   0008           00219                                                 RETURN                                  ;Cuando se carga
                             un valor en el registro TMR0 (se escribe mediante una
                      00220                                                                                                         
                            ;instrucción), se produce un retardo de dos ciclos de instrucción durante los
                      00221                                                                                                         
                            ;cuales se inhibe tanto el prescaler como TMR0. Será necesario tener en cuenta
                      00222                                                                                                         
                            ;esa inhibición temporal a la hora de realizar una precarga (compensar sumando
                      00223                                                                                                         
                            ;los ciclos de instrucción que “se pierden”)
                      00224 ;#######################################################################################################
                            ################
0420                  00225 t_20micros
                      00226 t_adq_20micros                  BANCO0                                  ;selecciona banco 0
0420   1283               M                         BCF     STATUS,RP0      ; las instrucciones CALL and GOTO proveen solo 11 bits d
                            e direccion para permitir saltar dentro de alguna pagina de 
0421   1303               M                         BCF     STATUS,RP1      ; de memoria de programa de 2K
0422   3006           00227                                                 MOVLW           H'06'                   ; (1) ciclo de i
                            nstruccion
MPASM 03.60 Released                         INTERRUP_SP2.ASM   8-18-2007  16:45:26         PAGE  7


LOC  OBJECT CODE     LINE SOURCE TEXT
  VALUE

0423   00B6           00228                                                 MOVWF           T_ADQ                   ; (1)
0424   0BB6           00229 esp_t_adq                               DECFSZ  T_ADQ,1         ; (1)           el decremento lo pone en
                             el mismo registro
0425   2C24           00230                                                 GOTO            esp_t_adq               ; (2)           
                                                    
0426   0008           00231                                                 RETURN                                  ; (2)           
                            20-4=16;          (3 ciclos)x(6)=18,         en realidad serian como 22 microsegundos
                      00232 ;#######################################################################################################
                            #########
                      00233 t1_ms                                   BANCO1                                  ; (2) CALL 
0427   1683               M                         BSF     STATUS,RP0      ; por PCLATH<4:3>
0428   1303               M                         BCF     STATUS,RP1      ; Cuando se hace una instruccion CALL o GOTO, el usuario
                             debe asegurar que los bits seleccionados de la pagina
Message[302]: Register in operand not in bank 0.  Ensure that bank bits are correct.
0429   1281           00234                                                 BCF             OPTION_REG,5    ;(1)    ; 0 = Internal i
                            nstruction cycle clock (CLKO)   |
Message[302]: Register in operand not in bank 0.  Ensure that bank bits are correct.
042A   1181           00235                                                 BCF             OPTION_REG,3    ;(1)    ; 0= pre scaler 
                            asignado al TMR0                        |       
                      00236                                                 ;-------------------------------------------------------
                            ------------------------------------------------------------------------------------------------
Message[302]: Register in operand not in bank 0.  Ensure that bank bits are correct.
042B   1501           00237                                                 BSF             OPTION_REG,2    ;(1)    ; PS<2:0>: Presc
                            aler Rate Select bits           | QUITAR contar estos microsegundos
Message[302]: Register in operand not in bank 0.  Ensure that bank bits are correct.
042C   1481           00238                                                 BSF             OPTION_REG,1    ;(1)    ; 111           
                            1:256                                           | en el retardo
Message[302]: Register in operand not in bank 0.  Ensure that bank bits are correct.
042D   1401           00239                                                 BSF             OPTION_REG,0    ;(1)    ; preescalador a
                             256                                            |
                      00240                                                 ;-------------------------------------------------------
                            ------------------------------------------------------------------------------------------------
                      00241                                                 BANCO0
042E   1283               M                         BCF     STATUS,RP0      ; las instrucciones CALL and GOTO proveen solo 11 bits d
                            e direccion para permitir saltar dentro de alguna pagina de 
042F   1303               M                         BCF     STATUS,RP1      ; de memoria de programa de 2K
0430   30FB           00242 PRECARGA_un_ms          MOVLW            H'FB'                  ;(1)    ; 
0431   0081           00243                                                 MOVWF           TMR0                    ;(1)    ;       
                            TMR0 =  [255 - {(fxt)(temporizacion deseada)}/(4*divisor de frecuencia)]
0432   1D0B           00244 AGUANTA_un_ms           BTFSS           INTCON,T0IF             ;(2) ;          TMR0 =  [255 - {(4MHz)(1
                            ms)}/(4*256)]= 255 - 3.9 = 255-4 = 251d=FB
0433   2C32           00245                                                 GOTO            AGUANTA_un_ms           ;(2)
0434   110B           00246                                                 BCF             INTCON,T0IF             ;(1)    ; limpia
                            r bandera 
0435   0008           00247                                                 RETURN                                  ;(2)
                      00248                                                                                                         
                            ;Cuando se carga un valor en el registro TMR0 (se escribe mediante una
                      00249                                                                                                         
                            ;instrucción), se produce un retardo de dos ciclos de instrucción durante los
                      00250                                                                                                         
                            ;cuales se inhibe tanto el prescaler como TMR0. Será necesario tener en cuenta
                      00251                                                                                                         
                            ;esa inhibición temporal a la hora de realizar una precarga (compensar sumando
MPASM 03.60 Released                         INTERRUP_SP2.ASM   8-18-2007  16:45:26         PAGE  8


LOC  OBJECT CODE     LINE SOURCE TEXT
  VALUE

                      00252                                                                                                         
                            ;los ciclos de instrucción que “se pierden”)
                      00253 ;#######################################################################################################
                            ########
                      00254 t4_ms                                   BANCO1                                  ; (2) CALL 
0436   1683               M                         BSF     STATUS,RP0      ; por PCLATH<4:3>
0437   1303               M                         BCF     STATUS,RP1      ; Cuando se hace una instruccion CALL o GOTO, el usuario
                             debe asegurar que los bits seleccionados de la pagina
Message[302]: Register in operand not in bank 0.  Ensure that bank bits are correct.
0438   1281           00255                                                 BCF             OPTION_REG,5    ;(1)    ; 0 = Internal i
                            nstruction cycle clock (CLKO)   |
Message[302]: Register in operand not in bank 0.  Ensure that bank bits are correct.
0439   1181           00256                                                 BCF             OPTION_REG,3    ;(1)    ; 0= pre scaler 
                            asignado al TMR0                        |       
                      00257                                                 ;-------------------------------------------------------
                            ------------------------------------------------------------------------------------------------
Message[302]: Register in operand not in bank 0.  Ensure that bank bits are correct.
043A   1501           00258                                                 BSF             OPTION_REG,2    ;(1)    ; PS<2:0>: Presc
                            aler Rate Select bits           | QUITAR contar estos microsegundos
Message[302]: Register in operand not in bank 0.  Ensure that bank bits are correct.
043B   1481           00259                                                 BSF             OPTION_REG,1    ;(1)    ; 111           
                            1:256                                           | en el retardo
Message[302]: Register in operand not in bank 0.  Ensure that bank bits are correct.
043C   1401           00260                                                 BSF             OPTION_REG,0    ;(1)    ; preescalador a
                             256                                            |
                      00261                                                 ;-------------------------------------------------------
                            ------------------------------------------------------------------------------------------------
                      00262                                                 BANCO0
043D   1283               M                         BCF     STATUS,RP0      ; las instrucciones CALL and GOTO proveen solo 11 bits d
                            e direccion para permitir saltar dentro de alguna pagina de 
043E   1303               M                         BCF     STATUS,RP1      ; de memoria de programa de 2K
043F   30EF           00263 PRECARGA_4_ms           MOVLW            H'EF'                  ;(1)    ; 
0440   0081           00264                                                 MOVWF           TMR0                    ;(1)    ;       
                            TMR0 =  [255 - {(fxt)(temporizacion deseada)}/(4*divisor de frecuencia)]
0441   1D0B           00265 AGUANTA_4_ms                    BTFSS           INTCON,T0IF             ;(2) ;          TMR0 =  [255 - {
                            (4MHz)(4ms)}/(4*256)]= 255 - 15.625 = 255-16 = 239d=EFh
0442   2C41           00266                                                 GOTO            AGUANTA_4_ms            ;(2)
0443   110B           00267                                                 BCF             INTCON,T0IF             ;(1)    ; limpia
                            r bandera 
0444   0008           00268                                                 RETURN                                  ;(2)
                      00269                                                                                                         
                            ;Cuando se carga un valor en el registro TMR0 (se escribe mediante una
                      00270                                                                                                         
                            ;instrucción), se produce un retardo de dos ciclos de instrucción durante los
                      00271                                                                                                         
                            ;cuales se inhibe tanto el prescaler como TMR0. Será necesario tener en cuenta
                      00272                                                                                                         
                            ;esa inhibición temporal a la hora de realizar una precarga (compensar sumando
                      00273                                                                                                         
                            ;los ciclos de instrucción que “se pierden”)
                      00274 ;#######################################################################################################
                            ########
                      00275 t100_micros             BANCO0                                  ;selecciona banco 0
MPASM 03.60 Released                         INTERRUP_SP2.ASM   8-18-2007  16:45:26         PAGE  9


LOC  OBJECT CODE     LINE SOURCE TEXT
  VALUE

0445   1283               M                         BCF     STATUS,RP0      ; las instrucciones CALL and GOTO proveen solo 11 bits d
                            e direccion para permitir saltar dentro de alguna pagina de 
0446   1303               M                         BCF     STATUS,RP1      ; de memoria de programa de 2K
0447   3020           00276                                 MOVLW           H'20'                   ; (1) ciclo de instruccion
0448   00B6           00277                                 MOVWF           T_ADQ                   ; (1)
0449   0BB6           00278 esp_100micros   DECFSZ  T_ADQ,1         ; (1)           el decremento lo pone en el mismo registro
044A   2C49           00279                                 GOTO            esp_100micros   ; (2)                                   
044B   0008           00280                                 RETURN                                  ; (2)           100-4=96;       
                              (3 ciclos)x(32)=96            32d=20h
                      00281 ;#######################################################################################################
                            ########
                      00282 t250_micros             BANCO0                                  ;selecciona banco 0
044C   1283               M                         BCF     STATUS,RP0      ; las instrucciones CALL and GOTO proveen solo 11 bits d
                            e direccion para permitir saltar dentro de alguna pagina de 
044D   1303               M                         BCF     STATUS,RP1      ; de memoria de programa de 2K
044E   3052           00283                                 MOVLW           H'52'                   ; (1) ciclo de instruccion
044F   00B6           00284                                 MOVWF           T_ADQ                   ; (1)
0450   0BB6           00285 esp_t250_micros DECFSZ  T_ADQ,1         ; (1)           el decremento lo pone en el mismo registro
0451   2C50           00286                                 GOTO            esp_t250_micros ; (2)                                   
0452   0008           00287                                 RETURN                                  ; (2)           250-4=246;      
                              (3 ciclos)x(82)=246;  82d=52h
                      00288 ;#######################################################################################################
                            ########
                      00289 t600_micros             BANCO0                                  ;selecciona banco 0
0453   1283               M                         BCF     STATUS,RP0      ; las instrucciones CALL and GOTO proveen solo 11 bits d
                            e direccion para permitir saltar dentro de alguna pagina de 
0454   1303               M                         BCF     STATUS,RP1      ; de memoria de programa de 2K
0455   30C7           00290                                 MOVLW           H'C7'                   ; (1) ciclo de instruccion
0456   00B6           00291                                 MOVWF           T_ADQ                   ; (1)
0457   0BB6           00292 esp_t600_micros DECFSZ  T_ADQ,1         ; (1)           el decremento lo pone en el mismo registro
0458   2C57           00293                                 GOTO            esp_t600_micros ; (2)                                   
0459   0008           00294                                 RETURN                                  ; (2)           600-4=596;      
                              (3 ciclos)x()=496;    199d=C7h
                      00295 ;#######################################################################################################
                            ########
                      00296 t500_micros             BANCO0                                  ;selecciona banco 0
045A   1283               M                         BCF     STATUS,RP0      ; las instrucciones CALL and GOTO proveen solo 11 bits d
                            e direccion para permitir saltar dentro de alguna pagina de 
045B   1303               M                         BCF     STATUS,RP1      ; de memoria de programa de 2K
045C   30A5           00297                                 MOVLW           H'A5'                   ; (1) ciclo de instruccion
045D   00B6           00298                                 MOVWF           T_ADQ                   ; (1)
045E   0BB6           00299 esp_t500_micros DECFSZ  T_ADQ,1         ; (1)           el decremento lo pone en el mismo registro
045F   2C5E           00300                                 GOTO            esp_t500_micros ; (2)                                   
0460   0008           00301                                 RETURN                                  ; (2)           500-4=496;      
                              (3 ciclos)x()=496;    165d=A5h
                      00302 ;#######################################################################################################
                            ########
                      00303 t83_micros              BANCO0                                  ;selecciona banco 0
0461   1283               M                         BCF     STATUS,RP0      ; las instrucciones CALL and GOTO proveen solo 11 bits d
                            e direccion para permitir saltar dentro de alguna pagina de 
0462   1303               M                         BCF     STATUS,RP1      ; de memoria de programa de 2K
0463   301A           00304                                 MOVLW           H'1A'                   ; (1) ciclo de instruccion
0464   00B6           00305                                 MOVWF           T_ADQ                   ; (1)
MPASM 03.60 Released                         INTERRUP_SP2.ASM   8-18-2007  16:45:26         PAGE 10


LOC  OBJECT CODE     LINE SOURCE TEXT
  VALUE

0465   0BB6           00306 esp_83micros    DECFSZ  T_ADQ,1         ; (1)           el decremento lo pone en el mismo registro
0466   2C65           00307                                 GOTO            esp_83micros    ; (2)                                   
0467   0008           00308                                 RETURN                                  ; (2)           83-4=79;        
                              (3 ciclos)x()=26.3333         26d=1Ah
                      00309 ;#######################################################################################################
                            ########
                      00310 ;######################SUBRUTINAS DE CONFIGURACION DE REGISTROS Y PERIFERICOS ##########################
                            #########################################################################
0200                  00311                                                 ORG             0x200
                      00312 ;------------ subrutina que configura unidades -------------------------------------------
                      00313 configura_unidades      BANCO0
0200   1283               M                         BCF     STATUS,RP0      ; las instrucciones CALL and GOTO proveen solo 11 bits d
                            e direccion para permitir saltar dentro de alguna pagina de 
0201   1303               M                         BCF     STATUS,RP1      ; de memoria de programa de 2K
                      00314                                         
0202   1103           00315                                         BCF             STATUS,2
0203   3000           00316                                         MOVLW           H'00'
0204   00CB           00317                                         MOVWF           UNI_com
0205   0824           00318                                         MOVF            UNI,0                           ;mueve el regist
                            ro UNI a W
0206   02CB           00319                                         SUBWF           UNI_com,1               ; resultado en registro 
                            (DECE_com - 0)=
0207   1D03           00320                                         BTFSS           STATUS,2                        ; salta si hay u
                            n 1 en la bandera Z
0208   2A0A           00321                                         GOTO            uni_no_es_cero
0209   2A0D           00322                                         GOTO            si_es_cero_uni                                  
                      00323                                         
020A   0BA4           00324 uni_no_es_cero          DECFSZ  UNI,1
020B   2A15           00325                                         GOTO            sigue_despleg_u
020C   2A11           00326                                         GOTO            despliega_cero_u
                      00327 
020D   3009           00328 si_es_cero_uni          MOVLW           H'09'
020E   00A4           00329                                         MOVWF           UNI
020F   2263           00330                                         CALL            desplegar_u_bcd
0210   2A33           00331                                         GOTO            si_sigue_opr
                      00332                                                                                 
0211   3000           00333 despliega_cero_u                MOVLW           H'00'
0212   00A4           00334                                         MOVWF           UNI
0213   2263           00335                                         CALL            desplegar_u_bcd
0214   2A17           00336                                         GOTO            si_sigue_opr_u
                      00337 
0215   2263           00338 sigue_despleg_u         CALL            desplegar_u_bcd
0216   2A17           00339                                         GOTO            si_sigue_opr_u
                      00340                                                 
0217   2400           00341 si_sigue_opr_u          CALL            tmedio_s
0218   1805           00342                                         BTFSC           PORTA,0
0219   2A00           00343                                         GOTO            configura_unidades
021A   2A1B           00344                                         GOTO            TERMINA_C_U
                      00345                                         
021B   0008           00346 TERMINA_C_U             RETURN
                      00347 ;------------ subrutina que configura decenas --------------------------------------------------
                      00348 configura_decenas       BANCO0
021C   1283               M                         BCF     STATUS,RP0      ; las instrucciones CALL and GOTO proveen solo 11 bits d
MPASM 03.60 Released                         INTERRUP_SP2.ASM   8-18-2007  16:45:26         PAGE 11


LOC  OBJECT CODE     LINE SOURCE TEXT
  VALUE

                            e direccion para permitir saltar dentro de alguna pagina de 
021D   1303               M                         BCF     STATUS,RP1      ; de memoria de programa de 2K
                      00349                                         
021E   1103           00350                                         BCF             STATUS,2
021F   3000           00351                                         MOVLW           H'00'
0220   00B9           00352                                         MOVWF           DECE_com
0221   0825           00353                                         MOVF            DECE,0                          ;mueve el regist
                            ro UNI a W
0222   02B9           00354                                         SUBWF           DECE_com,1              ; resultado en registro 
                            (DECE_com - 0)=
0223   1D03           00355                                         BTFSS           STATUS,2                        ; salta si hay u
                            n 1 en la bandera Z
0224   2A26           00356                                         GOTO            dece_no_es_cero
0225   2A29           00357                                         GOTO            si_es_cero                                      
                      00358                                         
0226   0BA5           00359 dece_no_es_cero         DECFSZ  DECE,1
0227   2A31           00360                                         GOTO            sigue_despleg
0228   2A2D           00361                                         GOTO            despliega_cero
                      00362 
0229   3009           00363 si_es_cero                      MOVLW           H'09'
022A   00A5           00364                                         MOVWF           DECE
022B   2270           00365                                         CALL            desplegar_d_bcd
022C   2A33           00366                                         GOTO            si_sigue_opr
                      00367                                                                                 
022D   3000           00368 despliega_cero          MOVLW           H'00'
022E   00A5           00369                                         MOVWF           DECE
022F   2270           00370                                         CALL            desplegar_d_bcd
0230   2A33           00371                                         GOTO            si_sigue_opr
                      00372 
0231   2270           00373 sigue_despleg           CALL            desplegar_d_bcd
0232   2A33           00374                                         GOTO            si_sigue_opr
                      00375                                                 
0233   2400           00376 si_sigue_opr                    CALL            tmedio_s
0234   1A85           00377                                         BTFSC           PORTA,5
0235   2A1C           00378                                         GOTO            configura_decenas
0236   2A37           00379                                         GOTO            TERMINA_C_D
                      00380 
0237   0008           00381 TERMINA_C_D             RETURN
                      00382 ;#######################################################################################################
                            ############
                      00383 limpia_registros                BANCO0
0238   1283               M                         BCF     STATUS,RP0      ; las instrucciones CALL and GOTO proveen solo 11 bits d
                            e direccion para permitir saltar dentro de alguna pagina de 
0239   1303               M                         BCF     STATUS,RP1      ; de memoria de programa de 2K
023A   0185           00384                                         CLRF            PORTA                                           
                                    ; limpia puerto A
023B   0186           00385                                         CLRF            PORTB                                           
                                    ; limpia puerto B
                      00386                                         ;***************************************************************
                            *
023C   01A4           00387                                         CLRF            UNI                             
023D   01A5           00388                                         CLRF            DECE                    
023E   01A6           00389                                         CLRF            SP                              
MPASM 03.60 Released                         INTERRUP_SP2.ASM   8-18-2007  16:45:26         PAGE 12


LOC  OBJECT CODE     LINE SOURCE TEXT
  VALUE

023F   01A7           00390                                         CLRF            uni_comodin             
0240   01A8           00391                                         CLRF            dece_comodin    
0241   01A9           00392                                         CLRF            STATUS_TEMP     
0242   01AA           00393                                         CLRF            PCLATH_TEMP     
0243   01AB           00394                                         CLRF            W_TEMP          
                      00395                                         ;**************************************************
0244   01AC           00396                                         CLRF            BINARIO                 
0245   01AD           00397                                         CLRF            CONTADOR1       
0246   01AE           00398                                         CLRF            CONTADOR2       
0247   01AF           00399                                         CLRF            CONTADOR3       
                      00400                                         ;********************** 
0248   01B0           00401                                         CLRF            BCDH                    
0249   01B1           00402                                         CLRF            BCDL                    
024A   01B2           00403                                         CLRF            BCD_TEMP                
024B   01C4           00404                                         CLRF            CUENTA          
024C   01B4           00405                                         CLRF            BIN                             
024D   01B5           00406                                         CLRF            BIN_comodin                                     
                                            
                      00407                                                         
024E   01B7           00408                                         CLRF            SEIS_CERO               
024F   01B8           00409                                         CLRF            NUEVE_NUEVE
0250   0008           00410                                         RETURN
                      00411 ;#######################################################################################################
                            #########
                      00412 configura_oscilador     BANCO1                  ; selecciona Banco 1; Se encuentran registros TRISA y TR
                            ISB
0251   1683               M                         BSF     STATUS,RP0      ; por PCLATH<4:3>
0252   1303               M                         BCF     STATUS,RP1      ; Cuando se hace una instruccion CALL o GOTO, el usuario
                             debe asegurar que los bits seleccionados de la pagina
                      00413                                                                                 ; al reset STATUS=000000
                            00
                      00414                                                                                 ; REGISTRO STATUS =     
                            IRP             RP1             RP0             T0_             PD_             Z               
                      00415                                                                                 ;  RP1 RP0
                      00416                                                                                 ;  0            0       
                                    banco 0
                      00417                                                                                 ;  0            1       
                                    banco 1         RP0=1
                      00418                                                                                 ;  1            0       
                                    banco 2
                      00419                                                                                 ;  1            1       
                                    banco 3
Message[302]: Register in operand not in bank 0.  Ensure that bank bits are correct.
0253   170F           00420                                         BSF     OSCCON,6        ;Pone el oscilador a 4 MHz con el oscila
                            dor interno RC; OSCCON controla varios aspectos de operacion del sistema de reloj; Banco 1
Message[302]: Register in operand not in bank 0.  Ensure that bank bits are correct.
0254   168F           00421                                         BSF     OSCCON,5        ;bit 6-4                110             
                            4 MHZ
                      00422                                                                                 ;al reset inicia con 0's
                             el registro.
0255   0008           00423                                         RETURN
                      00424 ;#######################################################################################################
                            ############################
MPASM 03.60 Released                         INTERRUP_SP2.ASM   8-18-2007  16:45:26         PAGE 13


LOC  OBJECT CODE     LINE SOURCE TEXT
  VALUE

                      00425 ;##### CONFIGURA LOS PUERTOS  A y B, (A0,A1,A2,A3 = ENTRADAS)  (A4,A5,A6,A7=SALIDAS),  (B0,B1,B2,B3 = EN
                            TRADAS)  (B4,B5,B6,B7=SALIDAS) ##################
                      00426 configura_puertos       BANCO1                                  ;;Puerto A como salida          0 - sali
                            da;     1 - entrada
0256   1683               M                         BSF     STATUS,RP0      ; por PCLATH<4:3>
0257   1303               M                         BCF     STATUS,RP1      ; Cuando se hace una instruccion CALL o GOTO, el usuario
                             debe asegurar que los bits seleccionados de la pagina
0258   30AF           00427                                 MOVLW           B'10101111'             ; RA7   RA6             RA5     
                                    RA4             RA3             RA2             RA1             RA0
Message[302]: Register in operand not in bank 0.  Ensure that bank bits are correct.
0259   0085           00428                                 MOVWF           TRISA                   ;    1            0             
                              1               0               1                1               1               1    
                      00429                                 ;-----------------------------------------------------------------------
                            ------------------------------------------------------------------------------------------------
025A   3001           00430                                 MOVLW           B'00000001'             ; RB7   RB6             RB5     
                                    RB4             RB3             RB2             RB1             RB0
Message[302]: Register in operand not in bank 0.  Ensure that bank bits are correct.
025B   0086           00431                                 MOVWF           TRISB                   ;    0            0             
                              0               0               0                0               0               1            
                      00432                                 ;-----------------------------------------------------------------------
                            ------------------------------------------------------------------------------------------------
025C   0008           00433                                 RETURN
                      00434 ;#######################################################################################################
                            ##############                                                  
                      00435 ;########################################### CONFIGURAR INTERRUPCIONES  ################################
                            #######################
                      00436 configura_interrupciones        BANCO1
025D   1683               M                         BSF     STATUS,RP0      ; por PCLATH<4:3>
025E   1303               M                         BCF     STATUS,RP1      ; Cuando se hace una instruccion CALL o GOTO, el usuario
                             debe asegurar que los bits seleccionados de la pagina
                      00437                 
Message[302]: Register in operand not in bank 0.  Ensure that bank bits are correct.
025F   1301           00438                                                 BCF             OPTION_REG,INTEDG                       
                                    ; activa por flanco de bajada, bit INTEDG
                      00439                                                 ;-----------------------------------------------------  
                            HABILITACION DE INTERRUPCIONES -----------------------------------------------------------------
0260   160B           00440                                                 BSF             INTCON, INTE                            
                                                    ; que sea interrupcion externa por RB0, bit INTE bit 4
0261   178B           00441                                                 BSF             INTCON, GIE                             
                                                    ; habilitamos interrupcion global GIE bit 7
                      00442                                                                                                         
                                                                    ; INTCON TAMBIEN ESTA EN BANCO 1
0262   0008           00443                                                 RETURN
                      00444 ;#######################################################################################################
                            ####################################;################################ PARA QUE NO SE PIERDA AQUI
                      00445 
                      00446 ;###################################################################
                      00447 desplegar_u_bcd         BANCO0
0263   1283               M                         BCF     STATUS,RP0      ; las instrucciones CALL and GOTO proveen solo 11 bits d
                            e direccion para permitir saltar dentro de alguna pagina de 
0264   1303               M                         BCF     STATUS,RP1      ; de memoria de programa de 2K
                      00448                                         
0265   30F0           00449                                         MOVLW           B'11110000'
MPASM 03.60 Released                         INTERRUP_SP2.ASM   8-18-2007  16:45:26         PAGE 14


LOC  OBJECT CODE     LINE SOURCE TEXT
  VALUE

0266   054A           00450                                         ANDWF           PORTB_com,0
0267   0424           00451                                         IORWF           UNI,0                   ; resultado en W, no alt
                            era UNI
0268   0086           00452                                         MOVWF           PORTB
0269   00CA           00453                                         MOVWF           PORTB_com
                      00454                                         
026A   1C24           00455                                         BTFSS           UNI,0           ; salta si hay un '1' en el bit0
                             del registro UNI
026B   2A6E           00456                                         GOTO            pon_ceroU       ; salta a etiqueta SIGUE
026C   1705           00457                                         BSF             PORTA,6 ; pon un '1' en el pin1 del PUERTO A
026D   2A6F           00458                                         GOTO            terminaU
026E   1305           00459 pon_ceroU                       BCF             PORTA,6 ; pon un '0' en el pin1 del puerto A            
                                                    
026F   0008           00460 terminaU                                RETURN                                  
                      00461 ;###################################################################
                      00462 desplegar_d_bcd         BANCO0
0270   1283               M                         BCF     STATUS,RP0      ; las instrucciones CALL and GOTO proveen solo 11 bits d
                            e direccion para permitir saltar dentro de alguna pagina de 
0271   1303               M                         BCF     STATUS,RP1      ; de memoria de programa de 2K
0272   0825           00463                                         MOVF            DECE,0                          ; mueve el reg D
                            ECE_com al registro W
0273   00B9           00464                                         MOVWF           DECE_com
                      00465                                         ;---------------------------------------------------------------
                            ------------------------------------------------------------------------------------------------
0274   0DB9           00466                                         RLF             DECE_com,1
0275   0DB9           00467                                         RLF             DECE_com,1
0276   0DB9           00468                                         RLF             DECE_com,1
0277   0DB9           00469                                         RLF             DECE_com,1
                      00470                                         ;---------------------------------------------------------------
                            --------------------------------------                  
0278   300F           00471                                         MOVLW           B'00001111'
0279   054A           00472                                         ANDWF           PORTB_com,0
027A   0439           00473                                         IORWF           DECE_com,0                      ; resultado en W
                            , no altera UNI
027B   00CA           00474                                         MOVWF           PORTB_com
027C   0086           00475                                         MOVWF           PORTB
                      00476                                         
                      00477                                         ;---------------------------------------------------------------
                            ----------------------------------------------
027D   0008           00478 terminaD                        RETURN                                  
                      00479 ;#######################################################################################################
                            ###################
                      00480 ;--------------- subrutina para convertir de BCD a BINARIO ----------------------------------------
027E   0825           00481 BCD_BINARIO     MOVF            DECE,0                          ; mueve el contenido de DECE al registro
                             W
027F   00B9           00482                                 MOVWF           DECE_com                ; mueve W al registro decenas co
                            modin                                   
0280   0DB9           00483                                 RLF             DECE_com,1              ; rota a la izq. el registo dece
                            _comodin y el resultado ponlo ahi mismo
0281   0DB9           00484                                 RLF             DECE_com,1              ; rota a la izq. el registo dece
                            _comodin y el resultado
0282   0839           00485                                 MOVF                    DECE_com,0              ; mueve dece_comodin al 
                            registro W
MPASM 03.60 Released                         INTERRUP_SP2.ASM   8-18-2007  16:45:26         PAGE 15


LOC  OBJECT CODE     LINE SOURCE TEXT
  VALUE

0283   07A5           00486                                 ADDWF           DECE,1                          ; suma W+DECE, el result
                            ado almacenalo en DECE
0284   0D25           00487                                 RLF             DECE,0                          ; rota a la izq. el regi
                            sto, el resultado ponlo en W
0285   0724           00488                                 ADDWF           UNI,0                           ; suma W+UNI, el resulta
                            do almacenalo en W
0286   00CC           00489                                 MOVWF           BINARIO_SP                              ; mueve W al reg
                            istro BINARIO
0287   00CD           00490                                 MOVWF           DATO_VELOC
0288   0008           00491                                 RETURN                                          ; regresa de la Subrutin
                            a
                      00492 ;#######################################################################################################
                            ##########
                      00493                                 END
MPASM 03.60 Released                         INTERRUP_SP2.ASM   8-18-2007  16:45:26         PAGE 16


SYMBOL TABLE
  LABEL                             VALUE 

ACCION_out                        00000124
ADCON0                            0000001F
ADCON1                            0000009F
ADCS0                             00000006
ADCS1                             00000007
ADCS2                             00000006
ADDEN                             00000003
ADFM                              00000007
ADIE                              00000006
ADIF                              00000006
ADON                              00000000
ADRESH                            0000001E
ADRESL                            0000009E
AGUANTA_4_ms                      00000441
AGUANTA_un_ms                     00000432
AGUANTAretraso50ms                0000041C
ANSEL                             0000009B
BANCO0                            
BANCO1                            
BANCO2                            
BANCO3                            
BCDH                              00000030
BCDL                              00000031
BCD_BINARIO                       0000027E
BCD_TEMP                          00000032
BF                                00000000
BIN                               00000034
BINARIO                           0000002C
BINARIO_SP                        0000004C
BIN_comodin                       00000035
BRGH                              00000002
C                                 00000000
C1INV                             00000004
C1OUT                             00000006
C2INV                             00000005
C2OUT                             00000007
CCP1CON                           00000017
CCP1IE                            00000002
CCP1IF                            00000002
CCP1M0                            00000000
CCP1M1                            00000001
CCP1M2                            00000002
CCP1M3                            00000003
CCP1X                             00000005
CCP1Y                             00000004
CCPR1H                            00000016
CCPR1L                            00000015
CHS0                              00000003
CHS1                              00000004
CHS2                              00000005
CIRCULOSP                         00000128
CIS                               00000003
CKE                               00000006
MPASM 03.60 Released                         INTERRUP_SP2.ASM   8-18-2007  16:45:26         PAGE 17


SYMBOL TABLE
  LABEL                             VALUE 

CKP                               00000004
CM0                               00000000
CM1                               00000001
CM2                               00000002
CMCON                             0000009C
CMIE                              00000006
CMIF                              00000006
COM                               00000042
CONTADOR1                         0000002D
CONTADOR2                         0000002E
CONTADOR3                         0000002F
CONTADOR_D_PULS                   00000041
CREN                              00000004
CSRC                              00000007
CUENTA                            00000044
CUENTA100                         00000033
CUENTA100_com                     00000043
CUENTASP1                         00000045
CUENTASP2                         00000046
CUENTASP3                         00000047
CUENTASP4                         00000048
CVR0                              00000000
CVR1                              00000001
CVR2                              00000002
CVR3                              00000003
CVRCON                            0000009D
CVREN                             00000007
CVROE                             00000006
CVRR                              00000005
D                                 00000005
DATA_ADDRESS                      00000005
DATO_VELOC                        0000004D
DC                                00000001
DECE                              00000025
DECE_com                          00000039
D_A                               00000005
EEADR                             0000010D
EEADRH                            0000010F
EECON1                            0000018C
EECON2                            0000018D
EEDATA                            0000010C
EEDATH                            0000010E
EEIE                              00000004
EEIF                              00000004
EEPGD                             00000007
F                                 00000001
FERR                              00000002
FREE                              00000004
FSR                               00000004
GIE                               00000007
GO                                00000002
GO_DONE                           00000002
HASTAELFINAL                      00000131
MPASM 03.60 Released                         INTERRUP_SP2.ASM   8-18-2007  16:45:26         PAGE 18


SYMBOL TABLE
  LABEL                             VALUE 

I2C_DATA                          00000005
I2C_READ                          00000002
I2C_START                         00000003
I2C_STOP                          00000004
INDF                              00000000
INICIA_SP                         00000104
INICIO                            00000005
INICIO_1                          00000009
INTCON                            0000000B
INTE                              00000004
INTEDG                            00000006
INTF                              00000001
IOFS                              00000002
IRCF0                             00000004
IRCF1                             00000005
IRCF2                             00000006
IRP                               00000007
NOT_A                             00000005
NOT_ADDRESS                       00000005
NOT_BO                            00000000
NOT_BOR                           00000000
NOT_DONE                          00000002
NOT_PD                            00000003
NOT_POR                           00000001
NOT_RBPU                          00000007
NOT_RC8                           00000006
NOT_T1SYNC                        00000002
NOT_TO                            00000004
NOT_TX8                           00000006
NOT_W                             00000002
NOT_WRITE                         00000002
NUEVE_NUEVE                       00000038
OERR                              00000001
OPTION_REG                        00000081
OSCCON                            0000008F
OSCTUNE                           00000090
OSFIE                             00000007
OSFIF                             00000007
OSTS                              00000003
OTRA_VEZ                          0000010D
P                                 00000004
PCL                               00000002
PCLATH                            0000000A
PCLATH_TEMP                       0000002A
PCON                              0000008E
PEIE                              00000006
PIE1                              0000008C
PIE2                              0000008D
PIR1                              0000000C
PIR2                              0000000D
PORTA                             00000005
PORTA_com                         00000049
PORTB                             00000006
MPASM 03.60 Released                         INTERRUP_SP2.ASM   8-18-2007  16:45:26         PAGE 19


SYMBOL TABLE
  LABEL                             VALUE 

PORTB_com                         0000004A
PR2                               00000092
PRECARGA                          0000041A
PRECARGA_4_ms                     0000043F
PRECARGA_un_ms                    00000430
PS0                               00000000
PS1                               00000001
PS2                               00000002
PSA                               00000003
QUITA_TIEMPO                      0000011E
R                                 00000002
RBIE                              00000003
RBIF                              00000000
RC8_9                             00000006
RC9                               00000006
RCD8                              00000000
RCIE                              00000005
RCIF                              00000005
RCREG                             0000001A
RCSTA                             00000018
RD                                00000000
READ_WRITE                        00000002
REG_REBOTE1                       0000003E
REG_REBOTE2                       0000003F
RETARDO_PULSO                     00000040
RETARDO_PULSO_com                 00000042
REVISA_D                          00000119
REVISA_U                          00000114
RP0                               00000005
RP1                               00000006
RX9                               00000006
RX9D                              00000000
R_W                               00000002
S                                 00000003
SCS0                              00000000
SCS1                              00000001
SEIS_CERO                         00000037
SIGUEPROG                         00000132
SMP                               00000007
SP                                00000026
SPBRG                             00000099
SPEN                              00000007
SP_INTERRUPT                      00000100
SREN                              00000005
SSPADD                            00000093
SSPBUF                            00000013
SSPCON                            00000014
SSPEN                             00000005
SSPIE                             00000003
SSPIF                             00000003
SSPM0                             00000000
SSPM1                             00000001
SSPM2                             00000002
MPASM 03.60 Released                         INTERRUP_SP2.ASM   8-18-2007  16:45:26         PAGE 20


SYMBOL TABLE
  LABEL                             VALUE 

SSPM3                             00000003
SSPOV                             00000006
SSPSTAT                           00000094
STATUS                            00000003
STATUS_TEMP                       00000029
SWDTE                             00000000
SWDTEN                            00000000
SYNC                              00000004
T0CS                              00000005
T0IE                              00000005
T0IF                              00000002
T0SE                              00000004
T1CKPS0                           00000004
T1CKPS1                           00000005
T1CON                             00000010
T1INSYNC                          00000002
T1OSCEN                           00000003
T1RUN                             00000006
T2CKPS0                           00000000
T2CKPS1                           00000001
T2CON                             00000012
TERMINA_C_D                       00000237
TERMINA_C_U                       0000021B
TMR0                              00000001
TMR0IE                            00000005
TMR0IF                            00000002
TMR1CS                            00000001
TMR1H                             0000000F
TMR1IE                            00000000
TMR1IF                            00000000
TMR1L                             0000000E
TMR1ON                            00000000
TMR2                              00000011
TMR2IE                            00000001
TMR2IF                            00000001
TMR2ON                            00000002
TOUTPS0                           00000003
TOUTPS1                           00000004
TOUTPS2                           00000005
TOUTPS3                           00000006
TRISA                             00000085
TRISB                             00000086
TRMT                              00000001
TUN0                              00000000
TUN1                              00000001
TUN2                              00000002
TUN3                              00000003
TUN4                              00000004
TUN5                              00000005
TX8_9                             00000006
TX9                               00000006
TX9D                              00000000
TXD8                              00000000
MPASM 03.60 Released                         INTERRUP_SP2.ASM   8-18-2007  16:45:26         PAGE 21


SYMBOL TABLE
  LABEL                             VALUE 

TXEN                              00000005
TXIE                              00000004
TXIF                              00000004
TXREG                             00000019
TXSTA                             00000098
T_ADQ                             00000036
UA                                00000001
UNI                               00000024
UNI_com                           0000004B
VCFG0                             00000004
VCFG1                             00000005
VECES_MISMO_RET                   00000043
W                                 00000000
WCOL                              00000007
WDTCON                            00000105
WDTPS0                            00000001
WDTPS1                            00000002
WDTPS2                            00000003
WDTPS3                            00000004
WR                                00000001
WREN                              00000002
WRERR                             00000003
W_TEMP                            0000002B
Z                                 00000002
_BODEN_OFF                        00003FBF
_BODEN_ON                         00003FFF
_CCP1_RB0                         00003FFF
_CCP1_RB3                         00002FFF
_CONFIG1                          00002007
_CONFIG2                          00002008
_CPD_OFF                          00003FFF
_CPD_ON                           00003EFF
_CP_ALL                           00001FFF
_CP_OFF                           00003FFF
_DEBUG_OFF                        00003FFF
_DEBUG_ON                         000037FF
_EXTCLK                           00003FEF
_EXTRC_CLKOUT                     00003FFF
_EXTRC_IO                         00003FFE
_FCMEN_OFF                        00003FFE
_FCMEN_ON                         00003FFF
_HS_OSC                           00003FEE
_IESO_OFF                         00003FFD
_IESO_ON                          00003FFF
_INTRC_CLKOUT                     00003FFD
_INTRC_IO                         00003FFC
_LP_OSC                           00003FEC
_LVP_OFF                          00003F7F
_LVP_ON                           00003FFF
_MCLR_OFF                         00003FDF
_MCLR_ON                          00003FFF
_PWRTE_OFF                        00003FFF
_PWRTE_ON                         00003FF7
MPASM 03.60 Released                         INTERRUP_SP2.ASM   8-18-2007  16:45:26         PAGE 22


SYMBOL TABLE
  LABEL                             VALUE 

_WDT_OFF                          00003FFB
_WDT_ON                           00003FFF
_WRT_ENABLE_1024                  00003BFF
_WRT_ENABLE_512                   00003DFF
_WRT_ENABLE_OFF                   00003FFF
_XT_OSC                           00003FED
__16F88                           00000001
configura_decenas                 0000021C
configura_interrupciones          0000025D
configura_oscilador               00000251
configura_puertos                 00000256
configura_unidades                00000200
dece_comodin                      00000028
dece_no_es_cero                   00000226
desplegar_d_bcd                   00000270
desplegar_u_bcd                   00000263
despliega_cero                    0000022D
despliega_cero_u                  00000211
esp_100micros                     00000449
esp_83micros                      00000465
esp_t250_micros                   00000450
esp_t500_micros                   0000045E
esp_t600_micros                   00000457
esp_t_adq                         00000424
limpia_registros                  00000238
pon_ceroU                         0000026E
si_es_cero                        00000229
si_es_cero_uni                    0000020D
si_sigue_opr                      00000233
si_sigue_opr_u                    00000217
sigue_despleg                     00000231
sigue_despleg_u                   00000215
t100_micros                       00000445
t1_ms                             00000427
t250_micros                       0000044C
t250_ms                           0000040B
t4_ms                             00000436
t500_micros                       0000045A
t50msTMR0                         00000411
t600_micros                       00000453
t83_micros                        00000461
t_20micros                        00000420
t_adq_20micros                    00000420
terminaD                          0000027D
terminaU                          0000026F
tmedio_s                          00000400
uni_comodin                       00000027
uni_no_es_cero                    0000020A
MPASM 03.60 Released                         INTERRUP_SP2.ASM   8-18-2007  16:45:26         PAGE 23


MEMORY USAGE MAP ('X' = Used,  '-' = Unused)


0000 : X---XXXXX------- ---------------- ---------------- ----------------
0100 : XXXXXXXXXXXXXXXX XXXXXXXXXXXXXXXX XXXXXXXXXXXXXXXX XXXXXXXX--------
0200 : XXXXXXXXXXXXXXXX XXXXXXXXXXXXXXXX XXXXXXXXXXXXXXXX XXXXXXXXXXXXXXXX
0240 : XXXXXXXXXXXXXXXX XXXXXXXXXXXXXXXX XXXXXXXXXXXXXXXX XXXXXXXXXXXXXXXX
0280 : XXXXXXXXX------- ---------------- ---------------- ----------------
0400 : XXXXXXXXXXXXXXXX XXXXXXXXXXXXXXXX XXXXXXXXXXXXXXXX XXXXXXXXXXXXXXXX
0440 : XXXXXXXXXXXXXXXX XXXXXXXXXXXXXXXX XXXXXXXX-------- ----------------

All other memory blocks unused.

Program Memory Words Used:   303
Program Memory Words Free:  3793


Errors   :     0
Warnings :     0 reported,     0 suppressed
Messages :    20 reported,     0 suppressed

