MPASM 03.60 Released                      INTERRUPCION_SP.ASM   7-29-2007  5:46:46         PAGE  1


LOC  OBJECT CODE     LINE SOURCE TEXT
  VALUE

                      00001 ;***************************************************************
                      00002                                 list    p=16F88
                      00003                                 #include        <p16F88.inc>
                      00001         LIST
                      00002 ; P16F88.INC  Standard Header File, Version 1.00    Microchip Technology, Inc.
                      00401         LIST
                      00004 ;***************************************************************
                      00005 BANCO0          MACRO
                      00006                         BCF     STATUS,RP0      
                      00007                         BCF     STATUS,RP1
                      00008                         ENDM
                      00009 BANCO1          MACRO
                      00010                         BSF     STATUS,RP0      
                      00011                         BCF     STATUS,RP1 
                      00012                         ENDM
                      00013 BANCO2          MACRO
                      00014                         BCF     STATUS,RP0      
                      00015                         BSF     STATUS,RP1 
                      00016                         ENDM
                      00017 BANCO3          MACRO
                      00018                         BSF     STATUS,RP0      
                      00019                         BSF     STATUS,RP1 
                      00020                         ENDM
                      00021 ;****************************************************************
  00000024            00022 UNI                             equ     24h
  00000025            00023 DECE                    equ     25h
  00000026            00024 SP                              equ     26h
  00000027            00025 uni_comodin             equ     27h
  00000028            00026 dece_comodin    equ     28h
  00000029            00027 STATUS_TEMP     equ 29h
  0000002A            00028 PCLATH_TEMP     equ 2Ah
  0000002B            00029 W_TEMP          equ     2Bh
                      00030 ;**************************************************
  0000002C            00031 BINARIO                 equ     2Ch
  0000002D            00032 CONTADOR1       equ 2Dh
  0000002E            00033 CONTADOR2       equ 2Eh
  0000002F            00034 CONTADOR3       equ 2Fh
                      00035 ;********************** 
  00000030            00036 BCDH                    equ 30h
  00000031            00037 BCDL                    equ 31h
  00000032            00038 BCD_TEMP                equ 32h
  00000033            00039 CUENTA          equ 33h
  00000034            00040 BIN                             equ 34h
  00000035            00041 BIN_comodin             equ 35h
  00000036            00042 T_ADQ                   equ 36h
                      00043 ;*************************************************
  00000037            00044 SEIS_CERO               equ     37h
  00000038            00045 NUEVE_NUEVE     equ  38h
                      00046 ;***************************************************************
                      00047 ; RECORDATORIO DE EN DONDE SE ENCUENGRAN ALGUNOS REGISTROS 
                      00048 ;       ADRESH  1Eh             banco 0
                      00049 ;       ADRESL  9Eh             banco 1
                      00050 ;       ANSEL           9Bh             banco 1
MPASM 03.60 Released                      INTERRUPCION_SP.ASM   7-29-2007  5:46:46         PAGE  2


LOC  OBJECT CODE     LINE SOURCE TEXT
  VALUE

                      00051 ;       ADCON0  1Fh             banco 0
                      00052 ;       ADCON1  9Fh             banco 1
                      00053 ;****************************************************************
                      00054 ;#######################################################################################################
                            ############################
0000                  00055                                                         ORG             0x0000
0000   2805           00056                                                         GOTO            INICIO
0004                  00057                                                         ORG             0x04
0004   280E           00058                                                         GOTO            SP_INTERRUPT
0005                  00059                                                         ORG             0x05
                      00060 ;#######################################################################################################
                            ############################
0005   2089           00061 INICIO          CALL            limpia_registros
0006   20A0           00062                         CALL            configura_oscilador
0007   20C6           00063                         CALL            configura_TMR0
0008   20A5           00064                         CALL            configura_comparadores  ; un comparador independiente
0009   20AA           00065                         CALL            configura_puertos
                      00066                         ;CALL           configura_convertidor
000A   20C0           00067                         CALL            configura_interrupciones
                      00068                         ;----------  PROGRAMA PRINCIPAL -  ---------------------------------------------
                            ----------------------------
000B   0000           00069 CIRCULO NOP
000C   3005           00070                         MOVLW           H'05'
000D   280B           00071                         GOTO            CIRCULO
                      00072 ;#######################################################################################################
                            #############
                      00073 ;{{{{{{{{{{{{{{{{{{{{{{{{{{{{{{{{{{{{{{{{{{{{{{{{{{{{{{{{{{{{{{{{{{{{{{{{{{{{{{{{{{  SUBRUTINA DE INTERR
                            UPCION }}}}}}}}}}}}}}}}}}}}}}}}}}}}}}}}}}}}}}}}}}}}}}}}}}}}}}}}}}}}}}}}}}}}}}}}}}}}}}}}}}}}}}}}}
000E   00AB           00074 SP_INTERRUPT    MOVWF   W_TEMP          ;Copy W to TEMP register                                        
                                                    ;codigo propuesto por hoja de especificaciones
000F   0E03           00075                                 SWAPF           STATUS,W                ;Swap status to be saved into W 
                                                                            ;codigo propuesto por hoja de especificaciones
0010   0183           00076                                 CLRF            STATUS          ;bank 0, regardless of current bank, Cle
                            ars IRP,RP1,RP0 ;codigo propuesto por hoja de especificaciones
0011   00A9           00077                                 MOVWF   STATUS_TEMP     ;Save status to bank zero STATUS_TEMP register  
                                            ;codigo propuesto por hoja de especificaciones
0012   080A           00078                                 MOVF            PCLATH, W               ;Only required if using page 1  
                                                                            ;codigo propuesto por hoja de especificaciones
0013   00AA           00079                                 MOVWF   PCLATH_TEMP     ;Save PCLATH into W                             
                                                                    ;codigo propuesto por hoja de especificaciones
0014   018A           00080                                 CLRF            PCLATH          ;Page zero, regardless of current page  
                                                            ;codigo propuesto por hoja de especificaciones
                      00081                                 ; ================================================
0015   3009           00082 INICIA_SP               MOVLW           H'09'
0016   00A4           00083                                 MOVWF           UNI
0017   00A5           00084                                 MOVWF           DECE
                      00085                                 ;CALL           desplegar_u_bcd
                      00086                                 ;CALL           desplegar_d_bcd
                      00087                                 ;-----------------------------------------------------------------------
                            -----------------------                         
0018   0805           00088 REV_BOTON       MOVF            PORTA,0
0019   0782           00089 DECISION                ADDWF   PCL,1           
001A   281E           00090                                 GOTO            ACCION0
MPASM 03.60 Released                      INTERRUPCION_SP.ASM   7-29-2007  5:46:46         PAGE  3


LOC  OBJECT CODE     LINE SOURCE TEXT
  VALUE

001B   281F           00091                                 GOTO            ACCION_1U
001C   2825           00092                                 GOTO            ACCION_2D
001D   282B           00093                                 GOTO            ACCION_3out
                      00094                                 ;-------------------------------------------------------------------
001E                  00095 ACCION0         
001E   2818           00096                                 GOTO            REV_BOTON
                      00097                                 ;-------------------------------------------------------------------
Message[305]: Using default destination of 1 (file).
001F   0BA4           00098 ACCION_1U               DECFSZ  UNI
0020   2823           00099                                 GOTO            AC_1U
0021   2075           00100                                 CALL            desplegar_u_bcd
0022   2815           00101                                 GOTO            INICIA_SP                               
0023   2075           00102 AC_1U                   CALL            desplegar_u_bcd                                                 
                                    
0024   2818           00103                                 GOTO            REV_BOTON
                      00104                                 ;-------------------------------------------------------------------
Message[305]: Using default destination of 1 (file).
0025   0BA5           00105 ACCION_2D               DECFSZ  DECE
0026   2823           00106                                 GOTO            AC_1U
0027   207F           00107                                 CALL            desplegar_d_bcd
0028   2815           00108                                 GOTO            INICIA_SP                               
0029   207F           00109 AC_1D                   CALL            desplegar_d_bcd                                                 
                                    
002A   2818           00110                                 GOTO            REV_BOTON
                      00111                                 ;-------------------------------------------------------------------    
                                                    
002B                  00112 ACCION_3out
002B   282C           00113                                 GOTO            SIGUEPROG
                      00114                                 ;-------------------------------------------------------------------
002C                  00115 SIGUEPROG                                               
                      00116                                 ; ========== recuperacion de reg import =============
002C   082A           00117                                 MOVF            PCLATH_TEMP,W           ;Restore PCLATH                 
                                                    ;codigo propuesto por hoja de especificaciones
002D   008A           00118                                 MOVWF   PCLATH                          ;Move W into PCLATH             
                                                    ;codigo propuesto por hoja de especificaciones
002E   0E29           00119                                 SWAPF           STATUS_TEMP,W           ;Swap STATUS_TEMP register into 
                            W       ;codigo propuesto por hoja de especificaciones
                      00120                                                                                                         
                            ;(sets bank to original state)                                  ;codigo propuesto por hoja de es
002F   0083           00121                                 MOVWF   STATUS                          ;Move W into STATUS register    
                                            ;codigo propuesto por hoja de especificaciones
0030   0EAB           00122                                 SWAPF           W_TEMP,F                                ;Swap W_TEMP    
                                                                    ;codigo propuesto por hoja de especificaciones
0031   0E2B           00123                                 SWAPF           W_TEMP,W                                ;Swap W_TEMP int
                            o W                             ;codigo propuesto por hoja de especificaciones
                      00124                                 ;==============================================
0032   0009           00125                                 RETFIE                                                          ;regresa
                             de la interrupcion
                      00126 ;}}}}}}}}}}}}}}}}}}}}}}}}}}}}}}}}}}}}}}}}}}}}}}}}}}}}}}}}}}}}}}}}}}}}}}}}}} TERMINA SUBRUTINA DE INTERRU
                            PCION }}}}}}}}}}}}}}}}}}}}}}}}}}}}}}}}}}}}}}}}}}}}}}}}}}}}}}}}}}}}}}}}}}}}}}}}}}}}}}}}}}}}}}}}}}
                      00127 ;------------ subrutina que limpia el registro UNI -------------------------------------------
                      00128 
0033   01A4           00129 UNI_A_CERO              CLRF            UNI             ;pone a ceros registro UNI, Z es afectado.
MPASM 03.60 Released                      INTERRUPCION_SP.ASM   7-29-2007  5:46:46         PAGE  4


LOC  OBJECT CODE     LINE SOURCE TEXT
  VALUE

0034   0008           00130                                         RETURN                  ;regresa al flujo del programa          
                      00131 ;---------------------------------------------------------------------------------------------
                      00132 ;------------- subrutina que limpia el registro DECE -----------------------------------------
                      00133 
0035   01A5           00134 DECE_A_CERO             CLRF            DECE            ;pone a ceros registro UNI, Z es afectado.
0036   0008           00135                                         RETURN                          ;regresa al flujo del programa  
                                    
                      00136 ;----------------------------------------------------------------------------------------------
                      00137 
                      00138 ;--------------- subrutina para convertir de BCD a BINARIO ----------------------------------------
                      00139 
                      00140 BCD_BINARIO     BANCO0
0037   1283               M                         BCF     STATUS,RP0      
0038   1303               M                         BCF     STATUS,RP1
0039   0825           00141                                 MOVF            DECE,0                          ; mueve el contenido de 
                            DECE al registro W
003A   00A8           00142                                 MOVWF           dece_comodin            ; mueve W al registro decenas co
                            modin                                   
003B   0DA8           00143                                 RLF             dece_comodin,1          ; rota a la izq. el registo dece
                            _comodin y el resultado ponlo ahi mismo
003C   0DA8           00144                                 RLF             dece_comodin,1          ; rota a la izq. el registo dece
                            _comodin y el resultado
003D   0828           00145                                 MOVF                    dece_comodin,0                  ; mueve dece_com
                            odin al registro W
003E   07A5           00146                                 ADDWF           DECE,1                          ; suma W+DECE, el result
                            ado almacenalo en DECE
003F   0D25           00147                                 RLF             DECE,0                          ; rota a la izq. el regi
                            sto, el resultado ponlo en W
0040   07A4           00148                                 ADDWF           UNI,1                           ; suma W+UNI, el resulta
                            do almacenalo en W
0041   00AC           00149                                 MOVWF           BINARIO                         ; mueve W al registro BI
                            NARIO
0042   0008           00150                                 RETURN                                          ; regresa de la Subrutin
                            a
                      00151 ;-------------------------------------------------------------------------------------------
                      00152 ;########################################## SUBRUTINA DE UN SEGUNDO DE TIEMPO ##########################
                            #########################################################################################
                      00153 ;############################   
                      00154 BIN2BCD_RS3     BANCO0
0043   1283               M                         BCF     STATUS,RP0      
0044   1303               M                         BCF     STATUS,RP1
0045   01B0           00155                                 CLRF            BCDH
0046   01B1           00156                                 CLRF            BCDL
                      00157 
0047   3008           00158                                 movlw           0x08
0048   00B3           00159                                 movwf           CUENTA
                      00160 
0049                  00161 CONVERSION1
0049   1003           00162                                 bcf                      STATUS,C
004A   0DB4           00163                                 rlf                     BIN,f
004B   0DB1           00164                                 rlf                     BCDL,f
004C   0BB3           00165                                 decfsz                  CUENTA,f
004D   284F           00166                                 goto                    $+2
MPASM 03.60 Released                      INTERRUPCION_SP.ASM   7-29-2007  5:46:46         PAGE  5


LOC  OBJECT CODE     LINE SOURCE TEXT
  VALUE

004E   285E           00167                                 goto                    FIN_CONV
004F   300F           00168                                 movlw           b'00001111'
0050   0531           00169                                 andwf                   BCDL,w
0051   00B2           00170                                 movwf           BCD_TEMP
0052   3005           00171                                 movlw           0x05
0053   0232           00172                                 subwf                   BCD_TEMP,w
0054   1803           00173                                 btfsc                   STATUS,C
0055   205F           00174                                 call                    sum3nib_bajo
0056   30F0           00175                                 movlw           b'11110000'
0057   0531           00176                                 andwf                   BCDL,w
0058   00B2           00177                                 movwf           BCD_TEMP
0059   3050           00178                                 movlw           0x50
005A   0232           00179                                 subwf                    BCD_TEMP,w
005B   1803           00180                                 btfsc                   STATUS,C
005C   2065           00181                                 call                    sum3nib_alto
005D   2849           00182                                 goto                    CONVERSION1
005E                  00183 FIN_CONV
005E   0008           00184                                 RETURN
                      00185                                 
                      00186                                 ;*******************************
                      00187                                 ;Subrutina que se encarga de
                      00188                                 ;sumar 3 al nibble bajo de BCDL
                      00189                                 ;*******************************
005F                  00190 sum3nib_bajo
005F   3003           00191                                 movlw           0x03
0060   07B1           00192                                 addwf           BCDL,f
0061   1C03           00193                                 btfss           STATUS,C
0062   0008           00194                                 return
0063   0DB0           00195                                 rlf                     BCDH,f
0064   0008           00196                                 RETURN
                      00197                                 
                      00198                                 ;*******************************
                      00199                                 ;Subrutina que se encarga de
                      00200                                 ;sumar 3 al nibble alto de BCDL
                      00201                                 ;*******************************
0065                  00202 sum3nib_alto
0065   3030           00203                                 movlw           0x30
0066   07B1           00204                                 addwf           BCDL,f
0067   1C03           00205                                 btfss           STATUS,C
0068   0008           00206                                 return
0069   0DB0           00207                                 rlf                     BCDH,f
006A   0008           00208                                 RETURN
                      00209 ;###################################################################
                      00210 ; movemos el registro BCDL al puerto B y el bit0 del registro BCDL al pin1 del puerto A
                      00211 
                      00212 desplegar_bin_bcd       BANCO0
006B   1283               M                         BCF     STATUS,RP0      
006C   1303               M                         BCF     STATUS,RP1
006D   0831           00213                                         MOVF            BCDL,0          ; mueve el reg BCDL al registro 
                            W
006E   0086           00214                                         MOVWF           PORTB           ; mueve el registro W al PORTB
006F   1C31           00215                                         BTFSS           BCDL,0          ; salta si hay un '1' en el bit0
                             del registro BCDL
MPASM 03.60 Released                      INTERRUPCION_SP.ASM   7-29-2007  5:46:46         PAGE  6


LOC  OBJECT CODE     LINE SOURCE TEXT
  VALUE

0070   2873           00216                                         GOTO            pon_cero        ; salta a etiqueta SIGUE
0071   1705           00217                                         BSF             PORTA,6 ; pon un '1' en el pin1 del PUERTO A
0072   2874           00218                                         GOTO            termina
0073   1305           00219 pon_cero                        BCF             PORTA,6 ; pon un '0' en el pin1 del puerto A            
                                                    
0074   0008           00220 termina                         RETURN                                  
                      00221 ;####################################################################
                      00222 ;###################################################################
                      00223 desplegar_u_bcd         BANCO0
0075   1283               M                         BCF     STATUS,RP0      
0076   1303               M                         BCF     STATUS,RP1
0077   0824           00224                                         MOVF            UNI,0           ; mueve el reg BCDL al registro 
                            W
0078   0086           00225                                         MOVWF           PORTB           ; mueve el registro W al PORTB
0079   1C24           00226                                         BTFSS           UNI,0           ; salta si hay un '1' en el bit0
                             del registro BCDL
007A   287D           00227                                         GOTO            pon_ceroU       ; salta a etiqueta SIGUE
007B   1705           00228                                         BSF             PORTA,6 ; pon un '1' en el pin1 del PUERTO A
007C   287E           00229                                         GOTO            terminaU
007D   1305           00230 pon_ceroU                       BCF             PORTA,6 ; pon un '0' en el pin1 del puerto A            
                                                    
007E   0008           00231 terminaU                                RETURN                                  
                      00232 ;###################################################################
                      00233 desplegar_d_bcd         BANCO0
007F   1283               M                         BCF     STATUS,RP0      
0080   1303               M                         BCF     STATUS,RP1
0081   0825           00234                                         MOVF            DECE,0          ; mueve el reg BCDL al registro 
                            W
0082   0086           00235                                         MOVWF           PORTB           ; mueve el registro W al PORTB
0083   1C25           00236                                         BTFSS           DECE,0          ; salta si hay un '1' en el bit0
                             del registro BCDL
0084   2887           00237                                         GOTO            pon_ceroD       ; salta a etiqueta SIGUE
0085   1705           00238                                         BSF             PORTA,6 ; pon un '1' en el pin1 del PUERTO A
0086   2888           00239                                         GOTO            terminaD
0087   1305           00240 pon_ceroD                       BCF             PORTA,6 ; pon un '0' en el pin1 del puerto A            
                                                    
0088   0008           00241 terminaD                        RETURN                                  
                      00242 ;####################################################################
0089   0185           00243 limpia_registros                                CLRF            PORTA                                   
                                            ; limpia puerto A
008A   0186           00244                                                         CLRF            PORTB                           
                                                    ; limpia puerto B
                      00245                                                         ;***********************************************
                            *****************
008B   01A4           00246                                                         CLRF            UNI                             
008C   01A5           00247                                                         CLRF            DECE                    
008D   01A6           00248                                                         CLRF            SP                              
008E   01A7           00249                                                         CLRF            uni_comodin             
008F   01A8           00250                                                         CLRF            dece_comodin    
0090   01A9           00251                                                         CLRF            STATUS_TEMP     
0091   01AA           00252                                                         CLRF            PCLATH_TEMP     
0092   01AB           00253                                                         CLRF            W_TEMP          
                      00254                                                         ;***********************************************
MPASM 03.60 Released                      INTERRUPCION_SP.ASM   7-29-2007  5:46:46         PAGE  7


LOC  OBJECT CODE     LINE SOURCE TEXT
  VALUE

                            ***
0093   01AC           00255                                                         CLRF            BINARIO                 
0094   01AD           00256                                                         CLRF            CONTADOR1       
0095   01AE           00257                                                         CLRF            CONTADOR2       
0096   01AF           00258                                                         CLRF            CONTADOR3       
                      00259                                                         ;********************** 
0097   01B0           00260                                                         CLRF            BCDH                    
0098   01B1           00261                                                         CLRF            BCDL                    
0099   01B2           00262                                                         CLRF            BCD_TEMP                
009A   01B3           00263                                                         CLRF            CUENTA          
009B   01B4           00264                                                         CLRF            BIN                             
009C   01B5           00265                                                         CLRF            BIN_comodin                     
                                                            
                      00266                                                         
009D   01B7           00267                                                         CLRF            SEIS_CERO               
009E   01B8           00268                                                         CLRF            NUEVE_NUEVE
009F   0008           00269                                                         RETURN
                      00270 ;#######################################################################################################
                            ###################
                      00271 ;-------------------------------------------------------------------------------------------------------
                            ----------------------------------------------------------
                      00272 configura_oscilador                     BANCO1                                  ; selecciona Banco 1; Se
                             encuentran registros TRISA y TRISB
00A0   1683               M                         BSF     STATUS,RP0      
00A1   1303               M                         BCF     STATUS,RP1 
                      00273                                                                                                         
                                    ; al reset STATUS=00000000
                      00274                                                                                                         
                                    ; REGISTRO STATUS =     IRP             RP1             RP0             T0_             
                      00275                                                                                                         
                                    ;  RP1 RP0
                      00276                                                                                                         
                                    ;  0            0               banco 0
                      00277                                                                                                         
                                    ;  0            1               banco 1         RP0=1
                      00278                                                                                                         
                                    ;  1            0               banco 2
                      00279                                                                                                         
                                    ;  1            1               banco 3
Message[302]: Register in operand not in bank 0.  Ensure that bank bits are correct.
00A2   170F           00280                                                         BSF             OSCCON,6                ;Pone el
                             oscilador a 4 MHz con el oscilador interno RC; OSCCON controla varios aspectos de operacion del
Message[302]: Register in operand not in bank 0.  Ensure that bank bits are correct.
00A3   168F           00281                                                         BSF             OSCCON,5                ;bit 6-4
                                            110             4 MHZ
                      00282                                                                                                         
                                    ;al reset inicia con 0's el registro.
00A4   0008           00283                                                         RETURN
                      00284 ;#######################################################################################################
                            ############################
                      00285 configura_comparadores          BANCO1
00A5   1683               M                         BSF     STATUS,RP0      
00A6   1303               M                         BCF     STATUS,RP1 
MPASM 03.60 Released                      INTERRUPCION_SP.ASM   7-29-2007  5:46:46         PAGE  8


LOC  OBJECT CODE     LINE SOURCE TEXT
  VALUE

00A7   3005           00286                                                         MOVLW           B'00000101'                     
                                                    ;carga el registro W con 07             0000 0111
Message[302]: Register in operand not in bank 0.  Ensure that bank bits are correct.
00A8   009C           00287                                                         MOVWF           CMCON                           
                                                    ;CMCON ->       C2OUT   C1OUT   C2INV   C1INV   CIS      CM2  CM1  CM0
                      00288                                                                                                         
                                                                    ; ver los modos de operacion de los comparadores
                      00289                                                                                                         
                                                                    ; comparadores encendidos, dos comparadores independient
00A9   0008           00290                                                         RETURN
                      00291 ;#######################################################################################################
                            ###########
                      00292 ;##### CONFIGURA LOS PUERTOS  A y B, (A0,A1,A2,A3 = ENTRADAS)  (A4,A5,A6,A7=SALIDAS),  (B0,B1,B2,B3 = EN
                            TRADAS)  (B4,B5,B6,B7=SALIDAS) ##################
                      00293 configura_puertos                               BANCO1
00AA   1683               M                         BSF     STATUS,RP0      
00AB   1303               M                         BCF     STATUS,RP1 
                      00294                                                         
00AC   30BF           00295                                                         MOVLW           B'10111111'                     
                                                    ; RA7   RA6             RA5             RA4             RA3             
Message[302]: Register in operand not in bank 0.  Ensure that bank bits are correct.
00AD   0085           00296                                                         MOVWF           TRISA                           
                                                    ;    1            0               1               1               1     
                      00297                                                                                                         
                                                                    ;Puerto A como salida           0 - salida;     1 - entr
00AE   3001           00298                                                         MOVLW           B'00000001'                     
                                                    ; RA7   RA6             RA5             RA4             RA3             
Message[302]: Register in operand not in bank 0.  Ensure that bank bits are correct.
00AF   0086           00299                                                         MOVWF           TRISB                           
                                                    ;    0            0               0               0               0     
                      00300                                                 
00B0   0008           00301                                                         RETURN
                      00302 ;#######################################################################################################
                            ##############                                                  
                      00303 ;################################## CONFIGURANDO EL CONVERTIDOR A/D ####################################
                            ######################
                      00304                                                                                                         
                                            ;1.     Configure el modulo A/D
                      00305                                                                                                         
                                            ;               •       Configurar E/S analógica/digital        (ANSEL) BANCO 1 
                      00306 configura_convertidor                   BANCO1
00B1   1683               M                         BSF     STATUS,RP0      
00B2   1303               M                         BCF     STATUS,RP1 
                      00307                                                         
Message[302]: Register in operand not in bank 0.  Ensure that bank bits are correct.
00B3   141B           00308                                                         BSF                     ANSEL,0         ; Regist
                            ro ANSEL - ANS6 ANS5 ANS4 ANS3 ANS2 ANS1 ANS0 
                      00309                                                                                                         
                                            ; banco 1
                      00310                                                                                                         
                                            ; Configura la funcion de los pines de los puertos
                      00311                                                                                                         
                                            ; pueden ser configurados como entradas analògicas 
MPASM 03.60 Released                      INTERRUPCION_SP.ASM   7-29-2007  5:46:46         PAGE  9


LOC  OBJECT CODE     LINE SOURCE TEXT
  VALUE

                      00312                                                                                                         
                                            ; (RA3,RA2 tambien pueden ser tensiones de referencia)
                      00313                                                                                                         
                                            ; o como entradas/salidas digitales; 
                      00314                                                                                                         
                                            ;       1 - analog I/O; 
                      00315                                                                                                         
                                            ;       0 - digital I/O
                      00316                                                                                                         
                                            ;-------------------------------------------------------------------------------
00B4   1683           00317                                                         BSF                     STATUS,RP0      ;       
                            (selecciona banco 1)                                                                            
                      00318                                                                                                         
                                            ;               •       Configurar tensión de referencia.       (ADCON1)        
                      00319 
                      00320                                                                                                         
                                            ; ADCON1:       ADFM    ADCS2   VCFG1           VCFG0     --      --      --    
                      00321                                                                                                         
                                            ; Bit 7 ADFM: selección de bit de resultado de formato A/D
                      00322                                                                                                         
                                            ;                               1=justificación derecha: los seis bits mas signi
Message[302]: Register in operand not in bank 0.  Ensure that bank bits are correct.
00B5   179F           00323                                                         BSF                     ADCON1,7                
                            ;                               0=justificación izquierda: los seis bits menos significativos de
                      00324                                                                                                         
                                            ; Bit 6 ADSC2: bit de selección de división de reloj por 2 del A/D
                      00325                                                                                                         
                                            ;                               1=fuente de reloj es dividida por 2 cuando el si
Message[302]: Register in operand not in bank 0.  Ensure that bank bits are correct.
00B6   131F           00326                                                         BCF                     ADCON1,6                
                            ;                               0=deshabilitado.                                                
                      00327                                                                                                         
                                            ; Bit 5-4       VCFG <1:0> bits de configuración de las tensiones de referencia 
                      00328                                                                                                         
                                            ;                               Estado lógico           VREF+ VREF- 
Message[302]: Register in operand not in bank 0.  Ensure that bank bits are correct.
00B7   129F           00329                                                         BCF                     ADCON1,5                
                            ;                               00                              AVDD  AVSS              *Elegimo
Message[302]: Register in operand not in bank 0.  Ensure that bank bits are correct.
00B8   121F           00330                                                         BCF                     ADCON1,4                
                            ;                               01                              AVDD   VREF-
                      00331                                                                                                         
                                            ;                               10                              VREF+   AVSS
                      00332                                                                                                         
                                            ;                               11                              VREF+   VREF-
                      00333                                                                                                         
                                            ; Bit  3-0      Sin implementación leídos como ‘0’
                      00334 
                      00335                                                                                                         
                                            ;primero vamos a poner el ADSC2=0, pero creo que en el reset es 0 :)            
                      00336                                                                                                         
                                            ;-------------------------------------------------------------------------------
                      00337                                                         BANCO0                                          
MPASM 03.60 Released                      INTERRUPCION_SP.ASM   7-29-2007  5:46:46         PAGE 10


LOC  OBJECT CODE     LINE SOURCE TEXT
  VALUE

                            ; selecciona banco 0
00B9   1283               M                         BCF     STATUS,RP0      
00BA   1303               M                         BCF     STATUS,RP1
                      00338                                                                                                         
                                            ; ADCON0:       ADSC1   ADCS0   CHS2    CHS1    CHS0    DO/DONE --      ADON
                      00339                                                                                                         
                                            ;                               1               1          0             0      
00BB   179F           00340                                                         BSF             ADCON0,7                        
                            ;Bit 7-6        ADSC<1:0> selección de bits del reloj de conversión
00BC   171F           00341                                                         BSF             ADCON0,6                        
                            ;       If ADSC2=0
                      00342                                                                                                         
                                            ;               00 Fosc/2
                      00343                                                                                                         
                                            ;               01 Fosc/8
                      00344                                                                                                         
                                            ;               10 Fosc/32
                      00345                                                                                                         
                                            ;               11 FRC (reloj derivado del oscilador interno RC del modulo A/D) 
                      00346                                                                                                         
                                            ;       if ADSC2=1
                      00347                                                                                                         
                                            ;               00 Fosc/4
                      00348                                                                                                         
                                            ;               01 Fosc/16
                      00349                                                                                                         
                                            ;               10 Fosc/64
                      00350                                                                                                         
                                            ;               11 FRC (reloj derivado del oscilador interno RC del modulo A/D) 
00BD   129F           00351                                                         BCF             ADCON0,5                        
                            ;Bit 5-3        CHS <2:0> selección de bits para los canales analógicos
00BE   121F           00352                                                         BCF             ADCON0,4                        
                            ;               000 canal 0 (RA0/AN0)
00BF   119F           00353                                                         BCF             ADCON0,3                        
                            ;               001 canal 1 (RA1/AN1)
                      00354                                                                                                         
                                            ;               010 canal 2 (RA2/AN2)
                      00355                                                                                                         
                                            ;               011 canal 3 (RA3/AN3)
                      00356                                                                                                         
                                            ;               100 canal 4 (RA4/AN4)
                      00357                                                                                                         
                                            ;               101 canal 5 (RB6/AN5)
                      00358                                                                                                         
                                            ;               110 canal 6 (RB7/AN6)
                      00359                                                         ;(utilizados en prog princ)                     
                            ;Bit 2  GO/DONE_ bit de estado de la conversión (A/D)
                      00360                                                                                                         
                                            ;               If ADON=1
                      00361                                                                                                         
                                            ;                                       1=la conversión esta en progreso (ponien
                      00362                                                                                                         
                                            ;                                       0=la conversión no esta en progreso (est
MPASM 03.60 Released                      INTERRUPCION_SP.ASM   7-29-2007  5:46:46         PAGE 11


LOC  OBJECT CODE     LINE SOURCE TEXT
  VALUE

                      00363                                                                                                         
                                            ;Bit 1  Sin implementar: leído como ‘0’
                      00364                                                         ;(utilizado en prog princ)                      
                            ;Bit 0  ADON: bit de encendido del A/D
                      00365                                                                                                         
                                            ;                                       1=modulo convertidor A/D esta operando
                      00366                                                                                                         
                                            ;                                       0=modulo convertidor esta apagado y no c
                      00367         
                      00368                                                         ;hecho arriba                                   
                                    ;               •       Seleccionar reloj de conversión A/D     (ADCON0)
                      00369 ;#######################################################################################################
                            ##############################
                      00370 ;########################################### CONFIGURAR INTERRUPCIONES  ################################
                            #######################
                      00371 configura_interrupciones        BANCO1
00C0   1683               M                         BSF     STATUS,RP0      
00C1   1303               M                         BCF     STATUS,RP1 
                      00372                 
Message[302]: Register in operand not in bank 0.  Ensure that bank bits are correct.
00C2   1701           00373                                                 BSF             OPTION_REG,6                            
                                    ; activa por flanco de subida, bit INTEDG
                      00374                                                         ;-----------------------------------------------
                            ------  HABILITACION DE INTERRUPCIONES ---------------------------------------------------------
00C3   160B           00375                                                 BSF             INTCON, 4                               
                                            ; que sea interrupcion externa por RB0, bit INTE bit 4
00C4   178B           00376                                                 BSF             INTCON, 7                               
                                    ; habilitamos interrupcion global GIE bit 7
                      00377                                                         
00C5   0008           00378                                                 RETURN
                      00379 ;#######################################################################################################
                            ####################################
                      00380 configura_TMR0                  BANCO1
00C6   1683               M                         BSF     STATUS,RP0      
00C7   1303               M                         BCF     STATUS,RP1 
                      00381 
Message[302]: Register in operand not in bank 0.  Ensure that bank bits are correct.
00C8   1281           00382                                                 BCF             OPTION_REG,5                            
                                    ; 0 = Internal instruction cycle clock (CLKO)
Message[302]: Register in operand not in bank 0.  Ensure that bank bits are correct.
00C9   1181           00383                                                 BCF             OPTION_REG,3                            
                                    ; 0= pre scaler asignado al TMR0
Message[302]: Register in operand not in bank 0.  Ensure that bank bits are correct.
00CA   1501           00384                                                 BSF             OPTION_REG,2                            
                                    ; PS<2:0>: Prescaler Rate Select bits
Message[302]: Register in operand not in bank 0.  Ensure that bank bits are correct.
00CB   1481           00385                                                 BSF             OPTION_REG,1                            
                                    ; 111           1:256
Message[302]: Register in operand not in bank 0.  Ensure that bank bits are correct.
00CC   1401           00386                                                 BSF             OPTION_REG,0                            
                                    ; preescalador a 256
                      00387                                                 
00CD   1283           00388                                                 BCF             STATUS,RP0                              
MPASM 03.60 Released                      INTERRUPCION_SP.ASM   7-29-2007  5:46:46         PAGE 12


LOC  OBJECT CODE     LINE SOURCE TEXT
  VALUE

                                    ; cambiar a banco 0
00CE   110B           00389                                                 BCF             INTCON,T0IF                             
                                            ; limpiar bandera 
00CF   0008           00390                                                 RETURN
                      00391 ;#######################################################################################################
                            ##############
                      00392 retraso_50msTMR0                BANCO2
00D0   1283               M                         BCF     STATUS,RP0      
00D1   1703               M                         BSF     STATUS,RP1 
                      00393                                                 
00D2   303C           00394 PRECARGA                                MOVLW            H'3C'                  ; 50ms -->
00D3   0081           00395                                                 MOVWF           TMR0    
00D4   1D0B           00396 AGUANTA                         BTFSS           INTCON,T0IF
00D5   28D4           00397                                                 GOTO            AGUANTA
00D6   110B           00398                                                 BCF             INTCON,T0IF             ; limpiar bander
                            a 
00D7   0008           00399                                                 RETURN
                      00400                                                 
                      00401                                                                                                         
                            ;Cuando se carga un valor en el registro TMR0 (se escribe mediante una
                      00402                                                                                                         
                            ;instrucción), se produce un retardo de dos ciclos de instrucción durante los
                      00403                                                                                                         
                            ;cuales se inhibe tanto el prescaler como TMR0. Será necesario tener en cuenta
                      00404                                                                                                         
                            ;esa inhibición temporal a la hora de realizar una precarga (compensar sumando
                      00405                                                                                                         
                            ;los ciclos de instrucción que “se pierden”)
                      00406 ;#######################################################################################################
                            ################
                      00407 t_adq_20micros                  BANCO0                                  ;selecciona banco 0
00D8   1283               M                         BCF     STATUS,RP0      
00D9   1303               M                         BCF     STATUS,RP1
00DA   3006           00408                                                 MOVLW           H'06'                   ; (1) ciclo de i
                            nstruccion
00DB   00B6           00409                                                 MOVWF           T_ADQ                   ; (1)
00DC   0BB6           00410 esp_t_adq                               DECFSZ  T_ADQ,1         ; (1)           el decremento lo pone en
                             el mismo registro
00DD   28DC           00411                                                 GOTO            esp_t_adq               ; (2)           
                                                    
00DE   0008           00412                                                 RETURN                                  ; (2)           
                            20-4=16;          (3 ciclos)x(6)=18,         en realidad serian como 22 microsegundos
                      00413 
                      00414 ;################################ PARA QUE NO SE PIERDA AQUI ESTA EL FINAL DEL PROGRAMA ################
                            ################################################################################################
                      00415                                                 END
MPASM 03.60 Released                      INTERRUPCION_SP.ASM   7-29-2007  5:46:46         PAGE 13


SYMBOL TABLE
  LABEL                             VALUE 

ACCION0                           0000001E
ACCION_1U                         0000001F
ACCION_2D                         00000025
ACCION_3out                       0000002B
AC_1D                             00000029
AC_1U                             00000023
ADCON0                            0000001F
ADCON1                            0000009F
ADCS0                             00000006
ADCS1                             00000007
ADCS2                             00000006
ADDEN                             00000003
ADFM                              00000007
ADIE                              00000006
ADIF                              00000006
ADON                              00000000
ADRESH                            0000001E
ADRESL                            0000009E
AGUANTA                           000000D4
ANSEL                             0000009B
BANCO0                            
BANCO1                            
BANCO2                            
BANCO3                            
BCDH                              00000030
BCDL                              00000031
BCD_BINARIO                       00000037
BCD_TEMP                          00000032
BF                                00000000
BIN                               00000034
BIN2BCD_RS3                       00000043
BINARIO                           0000002C
BIN_comodin                       00000035
BRGH                              00000002
C                                 00000000
C1INV                             00000004
C1OUT                             00000006
C2INV                             00000005
C2OUT                             00000007
CCP1CON                           00000017
CCP1IE                            00000002
CCP1IF                            00000002
CCP1M0                            00000000
CCP1M1                            00000001
CCP1M2                            00000002
CCP1M3                            00000003
CCP1X                             00000005
CCP1Y                             00000004
CCPR1H                            00000016
CCPR1L                            00000015
CHS0                              00000003
CHS1                              00000004
CHS2                              00000005
MPASM 03.60 Released                      INTERRUPCION_SP.ASM   7-29-2007  5:46:46         PAGE 14


SYMBOL TABLE
  LABEL                             VALUE 

CIRCULO                           0000000B
CIS                               00000003
CKE                               00000006
CKP                               00000004
CM0                               00000000
CM1                               00000001
CM2                               00000002
CMCON                             0000009C
CMIE                              00000006
CMIF                              00000006
CONTADOR1                         0000002D
CONTADOR2                         0000002E
CONTADOR3                         0000002F
CONVERSION1                       00000049
CREN                              00000004
CSRC                              00000007
CUENTA                            00000033
CVR0                              00000000
CVR1                              00000001
CVR2                              00000002
CVR3                              00000003
CVRCON                            0000009D
CVREN                             00000007
CVROE                             00000006
CVRR                              00000005
D                                 00000005
DATA_ADDRESS                      00000005
DC                                00000001
DECE                              00000025
DECE_A_CERO                       00000035
DECISION                          00000019
D_A                               00000005
EEADR                             0000010D
EEADRH                            0000010F
EECON1                            0000018C
EECON2                            0000018D
EEDATA                            0000010C
EEDATH                            0000010E
EEIE                              00000004
EEIF                              00000004
EEPGD                             00000007
F                                 00000001
FERR                              00000002
FIN_CONV                          0000005E
FREE                              00000004
FSR                               00000004
GIE                               00000007
GO                                00000002
GO_DONE                           00000002
I2C_DATA                          00000005
I2C_READ                          00000002
I2C_START                         00000003
I2C_STOP                          00000004
MPASM 03.60 Released                      INTERRUPCION_SP.ASM   7-29-2007  5:46:46         PAGE 15


SYMBOL TABLE
  LABEL                             VALUE 

INDF                              00000000
INICIA_SP                         00000015
INICIO                            00000005
INTCON                            0000000B
INTE                              00000004
INTEDG                            00000006
INTF                              00000001
IOFS                              00000002
IRCF0                             00000004
IRCF1                             00000005
IRCF2                             00000006
IRP                               00000007
NOT_A                             00000005
NOT_ADDRESS                       00000005
NOT_BO                            00000000
NOT_BOR                           00000000
NOT_DONE                          00000002
NOT_PD                            00000003
NOT_POR                           00000001
NOT_RBPU                          00000007
NOT_RC8                           00000006
NOT_T1SYNC                        00000002
NOT_TO                            00000004
NOT_TX8                           00000006
NOT_W                             00000002
NOT_WRITE                         00000002
NUEVE_NUEVE                       00000038
OERR                              00000001
OPTION_REG                        00000081
OSCCON                            0000008F
OSCTUNE                           00000090
OSFIE                             00000007
OSFIF                             00000007
OSTS                              00000003
P                                 00000004
PCL                               00000002
PCLATH                            0000000A
PCLATH_TEMP                       0000002A
PCON                              0000008E
PEIE                              00000006
PIE1                              0000008C
PIE2                              0000008D
PIR1                              0000000C
PIR2                              0000000D
PORTA                             00000005
PORTB                             00000006
PR2                               00000092
PRECARGA                          000000D2
PS0                               00000000
PS1                               00000001
PS2                               00000002
PSA                               00000003
R                                 00000002
MPASM 03.60 Released                      INTERRUPCION_SP.ASM   7-29-2007  5:46:46         PAGE 16


SYMBOL TABLE
  LABEL                             VALUE 

RBIE                              00000003
RBIF                              00000000
RC8_9                             00000006
RC9                               00000006
RCD8                              00000000
RCIE                              00000005
RCIF                              00000005
RCREG                             0000001A
RCSTA                             00000018
RD                                00000000
READ_WRITE                        00000002
REV_BOTON                         00000018
RP0                               00000005
RP1                               00000006
RX9                               00000006
RX9D                              00000000
R_W                               00000002
S                                 00000003
SCS0                              00000000
SCS1                              00000001
SEIS_CERO                         00000037
SIGUEPROG                         0000002C
SMP                               00000007
SP                                00000026
SPBRG                             00000099
SPEN                              00000007
SP_INTERRUPT                      0000000E
SREN                              00000005
SSPADD                            00000093
SSPBUF                            00000013
SSPCON                            00000014
SSPEN                             00000005
SSPIE                             00000003
SSPIF                             00000003
SSPM0                             00000000
SSPM1                             00000001
SSPM2                             00000002
SSPM3                             00000003
SSPOV                             00000006
SSPSTAT                           00000094
STATUS                            00000003
STATUS_TEMP                       00000029
SWDTE                             00000000
SWDTEN                            00000000
SYNC                              00000004
T0CS                              00000005
T0IE                              00000005
T0IF                              00000002
T0SE                              00000004
T1CKPS0                           00000004
T1CKPS1                           00000005
T1CON                             00000010
T1INSYNC                          00000002
MPASM 03.60 Released                      INTERRUPCION_SP.ASM   7-29-2007  5:46:46         PAGE 17


SYMBOL TABLE
  LABEL                             VALUE 

T1OSCEN                           00000003
T1RUN                             00000006
T2CKPS0                           00000000
T2CKPS1                           00000001
T2CON                             00000012
TMR0                              00000001
TMR0IE                            00000005
TMR0IF                            00000002
TMR1CS                            00000001
TMR1H                             0000000F
TMR1IE                            00000000
TMR1IF                            00000000
TMR1L                             0000000E
TMR1ON                            00000000
TMR2                              00000011
TMR2IE                            00000001
TMR2IF                            00000001
TMR2ON                            00000002
TOUTPS0                           00000003
TOUTPS1                           00000004
TOUTPS2                           00000005
TOUTPS3                           00000006
TRISA                             00000085
TRISB                             00000086
TRMT                              00000001
TUN0                              00000000
TUN1                              00000001
TUN2                              00000002
TUN3                              00000003
TUN4                              00000004
TUN5                              00000005
TX8_9                             00000006
TX9                               00000006
TX9D                              00000000
TXD8                              00000000
TXEN                              00000005
TXIE                              00000004
TXIF                              00000004
TXREG                             00000019
TXSTA                             00000098
T_ADQ                             00000036
UA                                00000001
UNI                               00000024
UNI_A_CERO                        00000033
VCFG0                             00000004
VCFG1                             00000005
W                                 00000000
WCOL                              00000007
WDTCON                            00000105
WDTPS0                            00000001
WDTPS1                            00000002
WDTPS2                            00000003
WDTPS3                            00000004
MPASM 03.60 Released                      INTERRUPCION_SP.ASM   7-29-2007  5:46:46         PAGE 18


SYMBOL TABLE
  LABEL                             VALUE 

WR                                00000001
WREN                              00000002
WRERR                             00000003
W_TEMP                            0000002B
Z                                 00000002
_BODEN_OFF                        00003FBF
_BODEN_ON                         00003FFF
_CCP1_RB0                         00003FFF
_CCP1_RB3                         00002FFF
_CONFIG1                          00002007
_CONFIG2                          00002008
_CPD_OFF                          00003FFF
_CPD_ON                           00003EFF
_CP_ALL                           00001FFF
_CP_OFF                           00003FFF
_DEBUG_OFF                        00003FFF
_DEBUG_ON                         000037FF
_EXTCLK                           00003FEF
_EXTRC_CLKOUT                     00003FFF
_EXTRC_IO                         00003FFE
_FCMEN_OFF                        00003FFE
_FCMEN_ON                         00003FFF
_HS_OSC                           00003FEE
_IESO_OFF                         00003FFD
_IESO_ON                          00003FFF
_INTRC_CLKOUT                     00003FFD
_INTRC_IO                         00003FFC
_LP_OSC                           00003FEC
_LVP_OFF                          00003F7F
_LVP_ON                           00003FFF
_MCLR_OFF                         00003FDF
_MCLR_ON                          00003FFF
_PWRTE_OFF                        00003FFF
_PWRTE_ON                         00003FF7
_WDT_OFF                          00003FFB
_WDT_ON                           00003FFF
_WRT_ENABLE_1024                  00003BFF
_WRT_ENABLE_512                   00003DFF
_WRT_ENABLE_OFF                   00003FFF
_XT_OSC                           00003FED
__16F88                           00000001
configura_TMR0                    000000C6
configura_comparadores            000000A5
configura_convertidor             000000B1
configura_interrupciones          000000C0
configura_oscilador               000000A0
configura_puertos                 000000AA
dece_comodin                      00000028
desplegar_bin_bcd                 0000006B
desplegar_d_bcd                   0000007F
desplegar_u_bcd                   00000075
esp_t_adq                         000000DC
limpia_registros                  00000089
MPASM 03.60 Released                      INTERRUPCION_SP.ASM   7-29-2007  5:46:46         PAGE 19


SYMBOL TABLE
  LABEL                             VALUE 

pon_cero                          00000073
pon_ceroD                         00000087
pon_ceroU                         0000007D
retraso_50msTMR0                  000000D0
sum3nib_alto                      00000065
sum3nib_bajo                      0000005F
t_adq_20micros                    000000D8
termina                           00000074
terminaD                          00000088
terminaU                          0000007E
uni_comodin                       00000027


MEMORY USAGE MAP ('X' = Used,  '-' = Unused)

0000 : X---XXXXXXXXXXXX XXXXXXXXXXXXXXXX XXXXXXXXXXXXXXXX XXXXXXXXXXXXXXXX
0040 : XXXXXXXXXXXXXXXX XXXXXXXXXXXXXXXX XXXXXXXXXXXXXXXX XXXXXXXXXXXXXXXX
0080 : XXXXXXXXXXXXXXXX XXXXXXXXXXXXXXXX XXXXXXXXXXXXXXXX XXXXXXXXXXXXXXXX
00C0 : XXXXXXXXXXXXXXXX XXXXXXXXXXXXXXX- ---------------- ----------------

All other memory blocks unused.

Program Memory Words Used:   220
Program Memory Words Free:  3876


Errors   :     0
Warnings :     0 reported,     0 suppressed
Messages :    18 reported,     0 suppressed

Error[173]  : source file path exceeds 62 characters (D:\MIS DOCUMENTOS\MIS DOCUMENTOS INGENIERIA\TEMAS_ELEC\ASM\INTERRUPCION_SP.ASM
                            )
