MPASM 03.60 Released                       PRUEBA_BIN_BCD.ASM   6-25-2007  18:22:59         PAGE  1


LOC  OBJECT CODE     LINE SOURCE TEXT
  VALUE

                      00001 ;***************************************************************
                      00002         ; PROGRAMA CONTROL DIFUSO DE TEMPERATURA
                      00003 
                      00004         ;title  "PIC Sample code: PIC16F88 program"
                      00005         ;subtitle       "CARLOS SANTIAGO CRUZ - TESIS - prueba del convertidor analógico digital"
                      00006 
                      00007 ;       codigo para el 16f88 a 4 MHz
                      00008 ;***************************************************************
                      00009         list    p=16F88
                      00010         #include        <p16F88.inc>
                      00001         LIST
                      00002 ; P16F88.INC  Standard Header File, Version 1.00    Microchip Technology, Inc.
                      00401         LIST
                      00011         
                      00012 ;       __CONFIG        _CONFIG1 & _CP_OFF & _CCP1_RB0 & _DEBUG_OFF & _CPD_OFF & _LVP_OFF & _BODEN_OFF &
                             _MCLR_ON & _PWRTE_ON & _WDT_OFF & _INTRC_IO
                      00013         ERRORLEVEL -302
                      00014 
                      00015 ;***************************************************************
                      00016 
  00000020            00017 z1                              equ     20h             ;REGISTROS COMODINES
  00000021            00018 z2                              equ     21h
  00000022            00019 z3                              equ     22h
  00000023            00020 z4                              equ     23h
  00000024            00021 UNI                             equ     24h
  00000025            00022 DECE                    equ     25h
  00000026            00023 SP                              equ     26h
  00000027            00024 uni_comodin             equ     27h
  00000028            00025 dece_comodin    equ     28h
  00000029            00026 STATUS_TEMP     equ 29h
  0000002A            00027 PCLATH_TEMP     equ 2Ah
  0000002B            00028 W_TEMP          equ     2Bh
  0000002C            00029 BINARIO                 equ     2Ch
  0000002D            00030 CONTADOR1       equ 2Dh
  0000002E            00031 CONTADOR2       equ 2Eh
  0000002F            00032 CONTADOR3       equ 2Fh
                      00033 ;********************** 
  00000030            00034 BCDH                    equ 30h
  00000031            00035 BCDL                    equ 31h
  00000032            00036 BCD_TEMP                equ 32h
  00000033            00037 CUENTA          equ 33h
  00000034            00038 BIN                             equ 34h
  00000034            00039 BIN_comodin             equ 34h
                      00040 ;***************************************************************
                      00041 
                      00042 ;***************************************************************
                      00043 ; registros 
                      00044 ;       ADRESH  1Eh             banco 0
                      00045 ;       ADRESL  9Eh             banco 1
                      00046 ;       ANSEL           9Bh             banco 1
                      00047 ;       ADCON0  1Fh             banco 0
                      00048 ;       ADCON1  9Fh             banco 1
                      00049 ;****************************************************************
MPASM 03.60 Released                       PRUEBA_BIN_BCD.ASM   6-25-2007  18:22:59         PAGE  2


LOC  OBJECT CODE     LINE SOURCE TEXT
  VALUE

                      00050 
                      00051 ;#######################################################################################################
                            ############################
0000                  00052                                                         ORG             0x0000
0000   2805           00053                                                         GOTO            INICIO
                      00054         
                      00055                                                         ;ORG            0x04
                      00056                                                         ;GOTO           SP_INTERRUPT
                      00057 
0005                  00058                                                         ORG             0x05
                      00059 ;#######################################################################################################
                            ############################
                      00060 
0005   0185           00061 INICIO                                          CLRF            PORTA                                   
                                            ; limpia puerto A
0006   0186           00062                                                         CLRF            PORTB                           
                                                    ; limpia puerto B
0007   1683           00063                                                         BSF             STATUS,RP0                      
                                            ; selecciona Banco 1; Se encuentran registros TRISA y TRISB
                      00064                                                                                                         
                                                                    ; al reset STATUS=00000000
                      00065                                                                                                         
                                                                    ; REGISTRO STATUS =     IRP             RP1             
                      00066                                                                                                         
                                                                    ;  RP1 RP0
                      00067                                                                                                         
                                                                    ;  0            0               banco 0
                      00068                                                                                                         
                                                                    ;  0            1               banco 1         RP0=1
                      00069                                                                                                         
                                                                    ;  1            0               banco 2
                      00070                                                                                                         
                                                                    ;  1            1               banco 3
                      00071 
                      00072 
                      00073 
0008   170F           00074                                                         BSF             OSCCON,6                        
                                                    ;Pone el oscilador a 4 MHz con el oscilador interno RC; OSCCON controla 
0009   168F           00075                                                         BSF             OSCCON,5                        
                                                    ;bit 6-4                110             4 MHZ
                      00076                                                                                                         
                                                                    ;al reset inicia con 0's el registro.
                      00077 
000A   3007           00078                                                         MOVLW           H'07'                           
                                                    ;carga el registro W con 07             0000 0111
000B   009C           00079                                                         MOVWF           CMCON                           
                                                    ;CMCON ->       C2OUT   C1OUT   C2INV   C1INV   CIS      CM2  CM1  CM0
                      00080                                                                                                         
                                                                    ; ver los modos de operacion de los comparadores
                      00081                                                                                                         
                                                                    ; comparadores apagados
                      00082                                                                                                         
                                                                    ;CLRF           TRISA                   ;Puerto A como s
MPASM 03.60 Released                       PRUEBA_BIN_BCD.ASM   6-25-2007  18:22:59         PAGE  3


LOC  OBJECT CODE     LINE SOURCE TEXT
  VALUE

                      00083 
                      00084 ;##### CONFIGURA LOS PUERTOS  A y B, (A0,A1,A2,A3 = ENTRADAS)  (A4,A5,A6,A7=SALIDAS),  (B0,B1,B2,B3 = EN
                            TRADAS)  (B4,B5,B6,B7=SALIDAS) ##################
                      00085 
000C   300F           00086                                                         MOVLW           H'0F'
000D   0085           00087                                                         MOVWF           TRISA           
                      00088                                                                                                         
                                                                    ;Puerto B como salida           0 - salida; 1 - entrada
000E   300F           00089                                                         MOVLW           H'0F'
000F   0086           00090                                                         MOVWF           TRISB
                      00091 
                      00092                                                         ;BCF            STATUS,RP0                      
                                            ;Selecciona Banco 0
                      00093 
                      00094 ;############################### CONFIGURAR FLANCO DE SUBIDA PARA INTERRUPCION EXTERNA POR PIN RB0 #####
                            ##########################
0010   1683           00095                                                         BSF             STATUS,RP0                      
                                            ; selecciona banco 1
0011   1303           00096                                                         BCF             STATUS,RP1                      
                                            ; selecciona banco 1
0012   1701           00097                                                         BSF             OPTION_REG,6                    
                                                    ; activa por flanco de bajada
                      00098 
                      00099 ;######################### HABILITACION DE INTERRUPCIONES ##############################################
                            #############################
                      00100                                                         
0013   178B           00101                                                         BSF             INTCON, GIE                     
                                                    ; habilitamos todas las interrupciones
0014   160B           00102                                                         BSF             INTCON, INTE                    
                                                    ; que sean interrupciones externas
                      00103 
                      00104 
                      00105 ;########################################## CONFIGURANDO EL CONVERTIDOR A/D ############################
                            ##############################
                      00106 
                      00107                                                                                                         
                                            ;1.     Configure el modulo A/D
                      00108                                                                                                         
                                            ;               •       Configurar E/S analógica/digital        (ANSEL) BANCO 1 
0015   1683           00109                                                         BSF             STATUS,RP0              ; selecc
                            iona banco 1
0016   300F           00110                                                         MOVLW           H'0F'
0017   009B           00111                                                         MOVWF           ANSEL                           
                            ; Registro ANSEL - ANS6 ANS5 ANS4 ANS3 ANS2 ANS1 ANS0 
                      00112                                                                                                         
                                            ; Configura la funcion de los pines de los puertos
                      00113                                                                                                         
                                            ; pueden ser configurados como entradas analògicas 
                      00114                                                                                                         
                                            ; (RA3,RA2 tambien pueden ser tensiones de referencia)
                      00115                                                                                                         
                                            ; o como entradas/salidas digitales; 
                      00116                                                                                                         
MPASM 03.60 Released                       PRUEBA_BIN_BCD.ASM   6-25-2007  18:22:59         PAGE  4


LOC  OBJECT CODE     LINE SOURCE TEXT
  VALUE

                                            ;       1 - analog I/O; 
                      00117                                                                                                         
                                            ;       0 - digital I/O
                      00118                                                                                                         
                                            ; 
0018   3000           00119                                                         MOVLW                   H'00'                   
                                                            ;               
0019   009F           00120                                                         MOVWF                   ADCON1          ;       
                                    •       Configurar tensión de referencia.       (ADCON1)        BANCO 1
                      00121                                                                                                         
                                            ; ADCON1:       ADFM    ADCS2   VCFG1           VCFG0   -       -       -       
                      00122                                                                                                         
                                            ; Bit 7 ADFM: selección de bit de resultado de formato A/D
                      00123                                                                                                         
                                            ;                               1=justificación derecha: los seis bits mas signi
                      00124                                                                                                         
                                            ;                               0=justificación izquierda: los seis bits menos s
                      00125                                                                                                         
                                            ; Bit 6 ADSC2: bit de selección de división de reloj por 2 del A/D
                      00126                                                                                                         
                                            ;                               1=fuente de reloj es dividida por 2 cuando el si
                      00127                                                                                                         
                                            ;                               0=deshabilitado.                                
                      00128                                                                                                         
                                            ; Bit 5-4       VCFG <1:0> bits de configuración de las tensiones de referencia 
                      00129                                                                                                         
                                            ;                               Estado lógico    VREF+ VREF- 
                      00130                                                                                                         
                                            ;                               00                   AVDD  AVSS         *Elegimo
                      00131                                                                                                         
                                            ;                               01                   AVDD   VREF-
                      00132                                                                                                         
                                            ;                               10                   VREF+   AVSS
                      00133                                                                                                         
                                            ;                               11                   VREF+   VREF-
                      00134                                                                                                         
                                            ; Bit  3-0      Sin implementación leídos como ‘0’
                      00135 
                      00136                                                                                                         
                                            ;primero vamos a poner el ADSC2=0, pero creo que en el reset es 0 :)            
                      00137 
001A   1283           00138                                                         BCF             STATUS,RP0              ;selecci
                            onamos banco 0
                      00139 
001B   30C0           00140                                                         MOVLW           H'C0'
001C   009F           00141                                                         MOVWF           ADCON0                  ;       
                                    •       Seleccionar canal de entrada A/D        (ADCON0)        BANCO 0
                      00142 
                      00143                                                                                                         
                                            ; ADCON0:       ADSC1   ADCS0   CHS2    CHS1    CHS0    DO/DONE -       ADON
                      00144                                                                                                         
                                            ;Bit 7-6        ADSC<1:0> selección de bits del reloj de conversión
                      00145                                                                                                         
MPASM 03.60 Released                       PRUEBA_BIN_BCD.ASM   6-25-2007  18:22:59         PAGE  5


LOC  OBJECT CODE     LINE SOURCE TEXT
  VALUE

                                            ;       If ADSC2=0
                      00146                                                                                                         
                                            ;               00 Fosc/2
                      00147                                                                                                         
                                            ;               01 Fosc/8
                      00148                                                                                                         
                                            ;               10 Fosc/32
                      00149                                                                                                         
                                            ;               11 FRC (reloj derivado del oscilador interno RC del modulo A/D) 
                      00150                                                                                                         
                                            ;       if ADSC2=1
                      00151                                                                                                         
                                            ;               00 Fosc/4
                      00152                                                                                                         
                                            ;               01 Fosc/16
                      00153                                                                                                         
                                            ;               10 Fosc/64
                      00154                                                                                                         
                                            ;               11 FRC (reloj derivado del oscilador interno RC del modulo A/D) 
                      00155                                                                                                         
                                            ;Bit 5-3        CHS <2:0> selección de bits para los canales analógicos
                      00156                                                                                                         
                                            ;               000 canal 0 (RA0/AN0)
                      00157                                                                                                         
                                            ;               001 canal 1 (RA1/AN1)
                      00158                                                                                                         
                                            ;               010 canal 2 (RA2/AN2)
                      00159                                                                                                         
                                            ;               011 canal 3 (RA3/AN3)
                      00160                                                                                                         
                                            ;               100 canal 4 (RA4/AN4)
                      00161                                                                                                         
                                            ;               101 canal 5 (RB6/AN5)
                      00162                                                                                                         
                                            ;               110 canal 6 (RB7/AN6)
                      00163                                                                                                         
                                            ;Bit 2  GO/DONE_ bit de estado de la conversión (A/D)
                      00164                                                                                                         
                                            ;               If ADON=1
                      00165                                                                                                         
                                            ;                                       1=la conversión esta en progreso (ponien
                      00166                                                                                                         
                                            ;                                       0=la conversión no esta en progreso (est
                      00167                                                                                                         
                                            ;Bit 1  Sin implementar: leído como ‘0’
                      00168                                                                                                         
                                            ;Bit 0  ADON: bit de encendido del A/D
                      00169                                                                                                         
                                            ;                                       1=modulo convertidor A/D esta operando
                      00170                                                                                                         
                                            ;                                       0=modulo convertidor esta apagado y no c
                      00171         
                      00172                 ;hecho arriba                                                                           
MPASM 03.60 Released                       PRUEBA_BIN_BCD.ASM   6-25-2007  18:22:59         PAGE  6


LOC  OBJECT CODE     LINE SOURCE TEXT
  VALUE

                                    ;               •       Seleccionar reloj de conversión A/D     (ADCON0)
                      00173 
                      00174 ;*******************************************************************************************************
                            **
001D   304D           00175 REGRESA         MOVLW                           B'01001101'
001E   00B4           00176                                 MOVWF                           BIN
001F   2022           00177                                 CALL                            BIN2BCD_RS3             ; llama a la sub
                            rutina de conversion de BINARIO A BCD
                      00178                                                                                                         
                                    ; en el registro BCDL se encuentran (NIBBLE decenas)(NIBBLE UNIDADES), necesitamos despl
0020   2048           00179                                 CALL                            desplegar_bin_bcd       
0021   281D           00180                                 GOTO                            REGRESA                                 
                                                                                                                            
                      00181 ;********************************************* PROBANDO CONVERSION BINARIO A BCD
0022                  00182 BIN2BCD_RS3
0022   01B0           00183                                 clrf                    BCDH
0023   01B1           00184                                 clrf                    BCDL
                      00185 
0024   3008           00186                                 movlw           0x08
0025   00B3           00187                                 movwf           CUENTA
                      00188 
0026                  00189 CONVERSION1
0026   1003           00190                                 bcf                      STATUS,C
0027   0DB4           00191                                 rlf                     BIN,f
0028   0DB1           00192                                 rlf                     BCDL,f
0029   0BB3           00193                                 decfsz                  CUENTA,f
002A   282C           00194                                 goto                    $+2
002B   283B           00195                                 goto                    TERMINA_CONVERSION
002C   300F           00196                                 movlw           b'00001111'
002D   0531           00197                                 andwf                   BCDL,w
002E   00B2           00198                                 movwf           BCD_TEMP
002F   3005           00199                                 movlw           0x05
0030   0232           00200                                 subwf                   BCD_TEMP,w
0031   1803           00201                                 btfsc                   STATUS,C
0032   203C           00202                                 call                    sum3nib_bajo
0033   30F0           00203                                 movlw           b'11110000'
0034   0531           00204                                 andwf                   BCDL,w
0035   00B2           00205                                 movwf           BCD_TEMP
0036   3050           00206                                 movlw           0x50
0037   0232           00207                                 subwf                    BCD_TEMP,w
0038   1803           00208                                 btfsc                   STATUS,C
0039   2042           00209                                 call                    sum3nib_alto
003A   2826           00210                                 goto                    CONVERSION1
                      00211 
003B                  00212 TERMINA_CONVERSION
003B   0008           00213                                 return
                      00214                                 
                      00215                                 ;*******************************
                      00216                                 ;Subrutina que se encarga de
                      00217                                 ;sumar 3 al nibble bajo de BCDL
                      00218                                 ;*******************************
003C                  00219 sum3nib_bajo
003C   3003           00220                                 movlw           0x03
MPASM 03.60 Released                       PRUEBA_BIN_BCD.ASM   6-25-2007  18:22:59         PAGE  7


LOC  OBJECT CODE     LINE SOURCE TEXT
  VALUE

003D   07B1           00221                                 addwf           BCDL,f
003E   1C03           00222                                 btfss           STATUS,C
003F   0008           00223                                 return
0040   0DB0           00224                                 rlf                     BCDH,f
0041   0008           00225                                 return
                      00226                                 
                      00227                                 ;*******************************
                      00228                                 ;Subrutina que se encarga de
                      00229                                 ;sumar 3 al nibble alto de BCDL
                      00230                                 ;*******************************
0042                  00231 sum3nib_alto
0042   3030           00232                                 movlw           0x30
0043   07B1           00233                                 addwf           BCDL,f
0044   1C03           00234                                 btfss           STATUS,C
0045   0008           00235                                 return
0046   0DB0           00236                                 rlf                     BCDH,f
0047   0008           00237                                 return
                      00238 ;###################################################################
                      00239 ; como tenemos que desplegar el nibble mas alto que son las decenas, solamente moveremos el BCDL al puer
                            to B, ya usanos RB4 a RB7
0048   0831           00240 desplegar_bin_bcd       MOVF            BCDL,0
0049   0086           00241                                         MOVWF           PORTB
                      00242                                                                                 ; ahora necesitamos move
                            r al puerto A de RA4 a RB7 el nibble mas bajo de BCDL
004A   0DB1           00243                                         RLF             BCDL,1  ;recorremos una vez a la izquierda, lo g
                            uardamos en el mismo BCDL
004B   0DB1           00244                                         RLF             BCDL,1  ;recorremos una vez a la izquierda, lo g
                            uardamos en el mismo BCDL
004C   0DB1           00245                                         RLF             BCDL,1  ;recorremos una vez a la izquierda, lo g
                            uardamos en el mismo BCDL
004D   0D31           00246                                         RLF             BCDL,0  ;recorremos una vez a la izquierda, lo g
                            uardamos en el registro W
                      00247                                         
004E   0085           00248                                         MOVWF           PORTA   ; movemos el registro W al puerto A
004F   0008           00249                                         RETURN                                          
                      00250 ;####################################################################
                      00251 ;#######################################################################################################
                            ############################    
                      00252                                         END
MPASM 03.60 Released                       PRUEBA_BIN_BCD.ASM   6-25-2007  18:22:59         PAGE  8


SYMBOL TABLE
  LABEL                             VALUE 

ADCON0                            0000001F
ADCON1                            0000009F
ADCS0                             00000006
ADCS1                             00000007
ADCS2                             00000006
ADDEN                             00000003
ADFM                              00000007
ADIE                              00000006
ADIF                              00000006
ADON                              00000000
ADRESH                            0000001E
ADRESL                            0000009E
ANSEL                             0000009B
BCDH                              00000030
BCDL                              00000031
BCD_TEMP                          00000032
BF                                00000000
BIN                               00000034
BIN2BCD_RS3                       00000022
BINARIO                           0000002C
BIN_comodin                       00000034
BRGH                              00000002
C                                 00000000
C1INV                             00000004
C1OUT                             00000006
C2INV                             00000005
C2OUT                             00000007
CCP1CON                           00000017
CCP1IE                            00000002
CCP1IF                            00000002
CCP1M0                            00000000
CCP1M1                            00000001
CCP1M2                            00000002
CCP1M3                            00000003
CCP1X                             00000005
CCP1Y                             00000004
CCPR1H                            00000016
CCPR1L                            00000015
CHS0                              00000003
CHS1                              00000004
CHS2                              00000005
CIS                               00000003
CKE                               00000006
CKP                               00000004
CM0                               00000000
CM1                               00000001
CM2                               00000002
CMCON                             0000009C
CMIE                              00000006
CMIF                              00000006
CONTADOR1                         0000002D
CONTADOR2                         0000002E
CONTADOR3                         0000002F
MPASM 03.60 Released                       PRUEBA_BIN_BCD.ASM   6-25-2007  18:22:59         PAGE  9


SYMBOL TABLE
  LABEL                             VALUE 

CONVERSION1                       00000026
CREN                              00000004
CSRC                              00000007
CUENTA                            00000033
CVR0                              00000000
CVR1                              00000001
CVR2                              00000002
CVR3                              00000003
CVRCON                            0000009D
CVREN                             00000007
CVROE                             00000006
CVRR                              00000005
D                                 00000005
DATA_ADDRESS                      00000005
DC                                00000001
DECE                              00000025
D_A                               00000005
EEADR                             0000010D
EEADRH                            0000010F
EECON1                            0000018C
EECON2                            0000018D
EEDATA                            0000010C
EEDATH                            0000010E
EEIE                              00000004
EEIF                              00000004
EEPGD                             00000007
F                                 00000001
FERR                              00000002
FREE                              00000004
FSR                               00000004
GIE                               00000007
GO                                00000002
GO_DONE                           00000002
I2C_DATA                          00000005
I2C_READ                          00000002
I2C_START                         00000003
I2C_STOP                          00000004
INDF                              00000000
INICIO                            00000005
INTCON                            0000000B
INTE                              00000004
INTEDG                            00000006
INTF                              00000001
IOFS                              00000002
IRCF0                             00000004
IRCF1                             00000005
IRCF2                             00000006
IRP                               00000007
NOT_A                             00000005
NOT_ADDRESS                       00000005
NOT_BO                            00000000
NOT_BOR                           00000000
NOT_DONE                          00000002
MPASM 03.60 Released                       PRUEBA_BIN_BCD.ASM   6-25-2007  18:22:59         PAGE 10


SYMBOL TABLE
  LABEL                             VALUE 

NOT_PD                            00000003
NOT_POR                           00000001
NOT_RBPU                          00000007
NOT_RC8                           00000006
NOT_T1SYNC                        00000002
NOT_TO                            00000004
NOT_TX8                           00000006
NOT_W                             00000002
NOT_WRITE                         00000002
OERR                              00000001
OPTION_REG                        00000081
OSCCON                            0000008F
OSCTUNE                           00000090
OSFIE                             00000007
OSFIF                             00000007
OSTS                              00000003
P                                 00000004
PCL                               00000002
PCLATH                            0000000A
PCLATH_TEMP                       0000002A
PCON                              0000008E
PEIE                              00000006
PIE1                              0000008C
PIE2                              0000008D
PIR1                              0000000C
PIR2                              0000000D
PORTA                             00000005
PORTB                             00000006
PR2                               00000092
PS0                               00000000
PS1                               00000001
PS2                               00000002
PSA                               00000003
R                                 00000002
RBIE                              00000003
RBIF                              00000000
RC8_9                             00000006
RC9                               00000006
RCD8                              00000000
RCIE                              00000005
RCIF                              00000005
RCREG                             0000001A
RCSTA                             00000018
RD                                00000000
READ_WRITE                        00000002
REGRESA                           0000001D
RP0                               00000005
RP1                               00000006
RX9                               00000006
RX9D                              00000000
R_W                               00000002
S                                 00000003
SCS0                              00000000
MPASM 03.60 Released                       PRUEBA_BIN_BCD.ASM   6-25-2007  18:22:59         PAGE 11


SYMBOL TABLE
  LABEL                             VALUE 

SCS1                              00000001
SMP                               00000007
SP                                00000026
SPBRG                             00000099
SPEN                              00000007
SREN                              00000005
SSPADD                            00000093
SSPBUF                            00000013
SSPCON                            00000014
SSPEN                             00000005
SSPIE                             00000003
SSPIF                             00000003
SSPM0                             00000000
SSPM1                             00000001
SSPM2                             00000002
SSPM3                             00000003
SSPOV                             00000006
SSPSTAT                           00000094
STATUS                            00000003
STATUS_TEMP                       00000029
SWDTE                             00000000
SWDTEN                            00000000
SYNC                              00000004
T0CS                              00000005
T0IE                              00000005
T0IF                              00000002
T0SE                              00000004
T1CKPS0                           00000004
T1CKPS1                           00000005
T1CON                             00000010
T1INSYNC                          00000002
T1OSCEN                           00000003
T1RUN                             00000006
T2CKPS0                           00000000
T2CKPS1                           00000001
T2CON                             00000012
TERMINA_CONVERSION                0000003B
TMR0                              00000001
TMR0IE                            00000005
TMR0IF                            00000002
TMR1CS                            00000001
TMR1H                             0000000F
TMR1IE                            00000000
TMR1IF                            00000000
TMR1L                             0000000E
TMR1ON                            00000000
TMR2                              00000011
TMR2IE                            00000001
TMR2IF                            00000001
TMR2ON                            00000002
TOUTPS0                           00000003
TOUTPS1                           00000004
TOUTPS2                           00000005
MPASM 03.60 Released                       PRUEBA_BIN_BCD.ASM   6-25-2007  18:22:59         PAGE 12


SYMBOL TABLE
  LABEL                             VALUE 

TOUTPS3                           00000006
TRISA                             00000085
TRISB                             00000086
TRMT                              00000001
TUN0                              00000000
TUN1                              00000001
TUN2                              00000002
TUN3                              00000003
TUN4                              00000004
TUN5                              00000005
TX8_9                             00000006
TX9                               00000006
TX9D                              00000000
TXD8                              00000000
TXEN                              00000005
TXIE                              00000004
TXIF                              00000004
TXREG                             00000019
TXSTA                             00000098
UA                                00000001
UNI                               00000024
VCFG0                             00000004
VCFG1                             00000005
W                                 00000000
WCOL                              00000007
WDTCON                            00000105
WDTPS0                            00000001
WDTPS1                            00000002
WDTPS2                            00000003
WDTPS3                            00000004
WR                                00000001
WREN                              00000002
WRERR                             00000003
W_TEMP                            0000002B
Z                                 00000002
_BODEN_OFF                        00003FBF
_BODEN_ON                         00003FFF
_CCP1_RB0                         00003FFF
_CCP1_RB3                         00002FFF
_CONFIG1                          00002007
_CONFIG2                          00002008
_CPD_OFF                          00003FFF
_CPD_ON                           00003EFF
_CP_ALL                           00001FFF
_CP_OFF                           00003FFF
_DEBUG_OFF                        00003FFF
_DEBUG_ON                         000037FF
_EXTCLK                           00003FEF
_EXTRC_CLKOUT                     00003FFF
_EXTRC_IO                         00003FFE
_FCMEN_OFF                        00003FFE
_FCMEN_ON                         00003FFF
_HS_OSC                           00003FEE
MPASM 03.60 Released                       PRUEBA_BIN_BCD.ASM   6-25-2007  18:22:59         PAGE 13


SYMBOL TABLE
  LABEL                             VALUE 

_IESO_OFF                         00003FFD
_IESO_ON                          00003FFF
_INTRC_CLKOUT                     00003FFD
_INTRC_IO                         00003FFC
_LP_OSC                           00003FEC
_LVP_OFF                          00003F7F
_LVP_ON                           00003FFF
_MCLR_OFF                         00003FDF
_MCLR_ON                          00003FFF
_PWRTE_OFF                        00003FFF
_PWRTE_ON                         00003FF7
_WDT_OFF                          00003FFB
_WDT_ON                           00003FFF
_WRT_ENABLE_1024                  00003BFF
_WRT_ENABLE_512                   00003DFF
_WRT_ENABLE_OFF                   00003FFF
_XT_OSC                           00003FED
__16F88                           00000001
dece_comodin                      00000028
desplegar_bin_bcd                 00000048
sum3nib_alto                      00000042
sum3nib_bajo                      0000003C
uni_comodin                       00000027
z1                                00000020
z2                                00000021
z3                                00000022
z4                                00000023


MEMORY USAGE MAP ('X' = Used,  '-' = Unused)

0000 : X----XXXXXXXXXXX XXXXXXXXXXXXXXXX XXXXXXXXXXXXXXXX XXXXXXXXXXXXXXXX
0040 : XXXXXXXXXXXXXXXX ---------------- ---------------- ----------------

All other memory blocks unused.

Program Memory Words Used:    76
Program Memory Words Free:  4020


Errors   :     0
Warnings :     0 reported,     0 suppressed
Messages :     0 reported,     8 suppressed

